---
triple:          'x86_64-apple-darwin'
binary-path:     maze-gen
relocations:
  - { offsetInCU: 0x6A5A, offset: 0x6A5A, size: 0x8, addend: 0x0, symName: __ZNSt3__113__fill_n_trueB7v160006INS_6vectorIbNS_9allocatorIbEEEEEEvNS_14__bit_iteratorIT_Lb0EXLi0EEEENS6_9size_typeE, symObjAddr: 0x39F0, symBinAddr: 0x100003F60, symSize: 0x140 }
  - { offsetInCU: 0x6B20, offset: 0x6B20, size: 0x8, addend: 0x0, symName: __ZNSt3__114__fill_n_falseB7v160006INS_6vectorIbNS_9allocatorIbEEEEEEvNS_14__bit_iteratorIT_Lb0EXLi0EEEENS6_9size_typeE, symObjAddr: 0x3B60, symBinAddr: 0x1000040D0, symSize: 0x140 }
  - { offsetInCU: 0x7C35, offset: 0x7C35, size: 0x8, addend: 0x0, symName: __ZNSt3__114__copy_alignedB7v160006INS_6vectorIbNS_9allocatorIbEEEELb1EEENS_14__bit_iteratorIT_Lb0EXLi0EEEENS5_IS6_XT0_EXLi0EEEES8_S7_, symObjAddr: 0x4C80, symBinAddr: 0x1000051F0, symSize: 0x260 }
  - { offsetInCU: 0x7D65, offset: 0x7D65, size: 0x8, addend: 0x0, symName: __ZNSt3__16copy_nB7v160006IPKmmPmEENS_9enable_ifIXsr33__is_cpp17_random_access_iteratorIT_EE5valueET1_E4typeES5_T0_S6_, symObjAddr: 0x53E0, symBinAddr: 0x100005950, symSize: 0x40 }
  - { offsetInCU: 0x7E0C, offset: 0x7E0C, size: 0x8, addend: 0x0, symName: __ZNSt3__116__copy_unalignedB7v160006INS_6vectorIbNS_9allocatorIbEEEELb1EEENS_14__bit_iteratorIT_Lb0EXLi0EEEENS5_IS6_XT0_EXLi0EEEES8_S7_, symObjAddr: 0x4EE0, symBinAddr: 0x100005450, symSize: 0x4D0 }
  - { offsetInCU: 0x97E1, offset: 0x97E1, size: 0x8, addend: 0x0, symName: __ZNSt3__124__put_character_sequenceB7v160006IcNS_11char_traitsIcEEEERNS_13basic_ostreamIT_T0_EES7_PKS4_m, symObjAddr: 0xA670, symBinAddr: 0x10000ABE0, symSize: 0x1F0 }
  - { offsetInCU: 0xC925, offset: 0xC925, size: 0x8, addend: 0x0, symName: __ZNSt3__1lsB7v160006INS_11char_traitsIcEEEERNS_13basic_ostreamIcT_EES6_PKc, symObjAddr: 0x240, symBinAddr: 0x1000007B0, symSize: 0x40 }
  - { offsetInCU: 0xC96B, offset: 0xC96B, size: 0x8, addend: 0x0, symName: __ZNSt3__122__make_exception_guardB7v160006INS_6vectorI4CellNS_9allocatorIS2_EEE16__destroy_vectorEEENS_28__exception_guard_exceptionsIT_EES8_, symObjAddr: 0x1030, symBinAddr: 0x1000015A0, symSize: 0x40 }
  - { offsetInCU: 0xC9A0, offset: 0xC9A0, size: 0x8, addend: 0x0, symName: __ZNSt3__119__debug_db_insert_cB7v160006INS_6vectorI4CellNS_9allocatorIS2_EEEEEEvPT_, symObjAddr: 0x10A0, symBinAddr: 0x100001610, symSize: 0x10 }
  - { offsetInCU: 0xC9D1, offset: 0xC9D1, size: 0x8, addend: 0x0, symName: __ZNSt3__119__allocate_at_leastB7v160006INS_9allocatorI4CellEEEENS_19__allocation_resultINS_16allocator_traitsIT_E7pointerEEERS6_m, symObjAddr: 0x13F0, symBinAddr: 0x100001960, symSize: 0x40 }
  - { offsetInCU: 0xCA14, offset: 0xCA14, size: 0x8, addend: 0x0, symName: __ZNSt3__13minB7v160006ImEERKT_S3_S3_, symObjAddr: 0x1520, symBinAddr: 0x100001A90, symSize: 0x30 }
  - { offsetInCU: 0xCC41, offset: 0xCC41, size: 0x8, addend: 0x0, symName: __ZNSt3__13minB7v160006ImNS_6__lessImmEEEERKT_S5_S5_T0_, symObjAddr: 0x15B0, symBinAddr: 0x100001B20, symSize: 0x50 }
  - { offsetInCU: 0xCCD6, offset: 0xCCD6, size: 0x8, addend: 0x0, symName: __ZNSt3__120__throw_length_errorB7v160006EPKc, symObjAddr: 0x1690, symBinAddr: 0x100001C00, symSize: 0x70 }
  - { offsetInCU: 0xCCFE, offset: 0xCCFE, size: 0x8, addend: 0x0, symName: __ZNSt3__117__libcpp_allocateB7v160006Emm, symObjAddr: 0x1800, symBinAddr: 0x100001D70, symSize: 0x60 }
  - { offsetInCU: 0xCD58, offset: 0xCD58, size: 0x8, addend: 0x0, symName: __ZNSt3__124__is_overaligned_for_newB7v160006Em, symObjAddr: 0x1860, symBinAddr: 0x100001DD0, symSize: 0x20 }
  - { offsetInCU: 0xCD86, offset: 0xCD86, size: 0x8, addend: 0x0, symName: __ZNSt3__121__libcpp_operator_newB7v160006IJmSt11align_val_tEEEPvDpT_, symObjAddr: 0x1880, symBinAddr: 0x100001DF0, symSize: 0x30 }
  - { offsetInCU: 0xCDD3, offset: 0xCDD3, size: 0x8, addend: 0x0, symName: __ZNSt3__121__libcpp_operator_newB7v160006IJmEEEPvDpT_, symObjAddr: 0x18B0, symBinAddr: 0x100001E20, symSize: 0x20 }
  - { offsetInCU: 0xCE0C, offset: 0xCE0C, size: 0x8, addend: 0x0, symName: __ZNSt3__112__to_addressB7v160006I4CellEEPT_S3_, symObjAddr: 0x19A0, symBinAddr: 0x100001F10, symSize: 0x10 }
  - { offsetInCU: 0xCE41, offset: 0xCE41, size: 0x8, addend: 0x0, symName: __ZNSt3__118__debug_db_erase_cB7v160006INS_6vectorI4CellNS_9allocatorIS2_EEEEEEvPT_, symObjAddr: 0x1C90, symBinAddr: 0x100002200, symSize: 0x10 }
  - { offsetInCU: 0xCE72, offset: 0xCE72, size: 0x8, addend: 0x0, symName: __ZNSt3__119__libcpp_deallocateB7v160006EPvmm, symObjAddr: 0x1E10, symBinAddr: 0x100002380, symSize: 0x60 }
  - { offsetInCU: 0xCED7, offset: 0xCED7, size: 0x8, addend: 0x0, symName: __ZNSt3__127__do_deallocate_handle_sizeB7v160006IJSt11align_val_tEEEvPvmDpT_, symObjAddr: 0x1E70, symBinAddr: 0x1000023E0, symSize: 0x30 }
  - { offsetInCU: 0xCF2A, offset: 0xCF2A, size: 0x8, addend: 0x0, symName: __ZNSt3__127__do_deallocate_handle_sizeB7v160006IJEEEvPvmDpT_, symObjAddr: 0x1EA0, symBinAddr: 0x100002410, symSize: 0x20 }
  - { offsetInCU: 0xCF68, offset: 0xCF68, size: 0x8, addend: 0x0, symName: __ZNSt3__124__libcpp_operator_deleteB7v160006IJPvSt11align_val_tEEEvDpT_, symObjAddr: 0x1EC0, symBinAddr: 0x100002430, symSize: 0x30 }
  - { offsetInCU: 0xCFB1, offset: 0xCFB1, size: 0x8, addend: 0x0, symName: __ZNSt3__124__libcpp_operator_deleteB7v160006IJPvEEEvDpT_, symObjAddr: 0x1EF0, symBinAddr: 0x100002460, symSize: 0x20 }
  - { offsetInCU: 0xCFE6, offset: 0xCFE6, size: 0x8, addend: 0x0, symName: __ZNSt3__122__make_exception_guardB7v160006INS_6vectorINS1_I4CellNS_9allocatorIS2_EEEENS3_IS5_EEE16__destroy_vectorEEENS_28__exception_guard_exceptionsIT_EESA_, symObjAddr: 0x2020, symBinAddr: 0x100002590, symSize: 0x40 }
  - { offsetInCU: 0xD01B, offset: 0xD01B, size: 0x8, addend: 0x0, symName: __ZNSt3__119__debug_db_insert_cB7v160006INS_6vectorINS1_I4CellNS_9allocatorIS2_EEEENS3_IS5_EEEEEEvPT_, symObjAddr: 0x2090, symBinAddr: 0x100002600, symSize: 0x10 }
  - { offsetInCU: 0xD04C, offset: 0xD04C, size: 0x8, addend: 0x0, symName: __ZNSt3__119__allocate_at_leastB7v160006INS_9allocatorINS_6vectorI4CellNS1_IS3_EEEEEEEENS_19__allocation_resultINS_16allocator_traitsIT_E7pointerEEERS9_m, symObjAddr: 0x23E0, symBinAddr: 0x100002950, symSize: 0x40 }
  - { offsetInCU: 0xD08F, offset: 0xD08F, size: 0x8, addend: 0x0, symName: __ZNSt3__112__to_addressB7v160006INS_6vectorI4CellNS_9allocatorIS2_EEEEEEPT_S7_, symObjAddr: 0x26C0, symBinAddr: 0x100002C30, symSize: 0x10 }
  - { offsetInCU: 0xD0C4, offset: 0xD0C4, size: 0x8, addend: 0x0, symName: __ZNSt3__130__uninitialized_allocator_copyB7v160006INS_9allocatorI4CellEEPS2_S4_S4_EET2_RT_T0_T1_S5_, symObjAddr: 0x2A70, symBinAddr: 0x100002FE0, symSize: 0x100 }
  - { offsetInCU: 0xD162, offset: 0xD162, size: 0x8, addend: 0x0, symName: __ZNSt3__122__make_exception_guardB7v160006INS_29_AllocatorDestroyRangeReverseINS_9allocatorI4CellEEPS3_EEEENS_28__exception_guard_exceptionsIT_EES8_, symObjAddr: 0x2B70, symBinAddr: 0x1000030E0, symSize: 0x60 }
  - { offsetInCU: 0xD197, offset: 0xD197, size: 0x8, addend: 0x0, symName: __ZNSt3__119__allocator_destroyB7v160006INS_9allocatorI4CellEENS_16reverse_iteratorIPS2_EES6_EEvRT_T0_T1_, symObjAddr: 0x2E00, symBinAddr: 0x100003370, symSize: 0x70 }
  - { offsetInCU: 0xD1FA, offset: 0xD1FA, size: 0x8, addend: 0x0, symName: __ZNSt3__1neB7v160006IP4CellS2_EEbRKNS_16reverse_iteratorIT_EERKNS3_IT0_EE, symObjAddr: 0x2EA0, symBinAddr: 0x100003410, symSize: 0x40 }
  - { offsetInCU: 0xD246, offset: 0xD246, size: 0x8, addend: 0x0, symName: __ZNSt3__112__to_addressB7v160006INS_16reverse_iteratorIP4CellEEvEENS_5decayIDTclsr19__to_address_helperIT_EE6__callclsr3stdE7declvalIRKS6_EEEEE4typeES8_, symObjAddr: 0x2EE0, symBinAddr: 0x100003450, symSize: 0x20 }
  - { offsetInCU: 0xD2A5, offset: 0xD2A5, size: 0x8, addend: 0x0, symName: __ZNSt3__118__debug_db_erase_cB7v160006INS_6vectorINS1_I4CellNS_9allocatorIS2_EEEENS3_IS5_EEEEEEvPT_, symObjAddr: 0x31A0, symBinAddr: 0x100003710, symSize: 0x10 }
  - { offsetInCU: 0xD2D6, offset: 0xD2D6, size: 0x8, addend: 0x0, symName: __ZNSt3__119__allocate_at_leastB7v160006INS_9allocatorImEEEENS_19__allocation_resultINS_16allocator_traitsIT_E7pointerEEERS5_m, symObjAddr: 0x3700, symBinAddr: 0x100003C70, symSize: 0x40 }
  - { offsetInCU: 0xD505, offset: 0xD505, size: 0x8, addend: 0x0, symName: __ZNSt3__16fill_nB7v160006INS_6vectorIbNS_9allocatorIbEEEEEEvNS_14__bit_iteratorIT_Lb0EXLi0EEEENS6_9size_typeEb, symObjAddr: 0x3920, symBinAddr: 0x100003E90, symSize: 0x80 }
  - { offsetInCU: 0xD557, offset: 0xD557, size: 0x8, addend: 0x0, symName: __ZNSt3__16fill_nB7v160006IPmmmEET_S2_T0_RKT1_, symObjAddr: 0x3CA0, symBinAddr: 0x100004210, symSize: 0x40 }
  - { offsetInCU: 0xD5BA, offset: 0xD5BA, size: 0x8, addend: 0x0, symName: __ZNSt3__112__to_addressB7v160006ImEEPT_S2_, symObjAddr: 0x3CE0, symBinAddr: 0x100004250, symSize: 0x10 }
  - { offsetInCU: 0xD5EF, offset: 0xD5EF, size: 0x8, addend: 0x0, symName: __ZNSt3__18__fill_nB7v160006IPmmmEET_S2_T0_RKT1_, symObjAddr: 0x3CF0, symBinAddr: 0x100004260, symSize: 0x50 }
  - { offsetInCU: 0xD652, offset: 0xD652, size: 0x8, addend: 0x0, symName: __ZNSt3__121__convert_to_integralB7v160006Em, symObjAddr: 0x3D40, symBinAddr: 0x1000042B0, symSize: 0x10 }
  - { offsetInCU: 0xD67E, offset: 0xD67E, size: 0x8, addend: 0x0, symName: __ZNSt3__16fill_nB7v160006IPmmiEET_S2_T0_RKT1_, symObjAddr: 0x3D80, symBinAddr: 0x1000042F0, symSize: 0x40 }
  - { offsetInCU: 0xD6E1, offset: 0xD6E1, size: 0x8, addend: 0x0, symName: __ZNSt3__18__fill_nB7v160006IPmmiEET_S2_T0_RKT1_, symObjAddr: 0x3DC0, symBinAddr: 0x100004330, symSize: 0x50 }
  - { offsetInCU: 0xD744, offset: 0xD744, size: 0x8, addend: 0x0, symName: __ZNSt3__122__make_exception_guardB7v160006INS_6vectorINS1_IbNS_9allocatorIbEEEENS2_IS4_EEE16__destroy_vectorEEENS_28__exception_guard_exceptionsIT_EES9_, symObjAddr: 0x3F80, symBinAddr: 0x1000044F0, symSize: 0x40 }
  - { offsetInCU: 0xD779, offset: 0xD779, size: 0x8, addend: 0x0, symName: __ZNSt3__119__debug_db_insert_cB7v160006INS_6vectorINS1_IbNS_9allocatorIbEEEENS2_IS4_EEEEEEvPT_, symObjAddr: 0x3FF0, symBinAddr: 0x100004560, symSize: 0x10 }
  - { offsetInCU: 0xD7AA, offset: 0xD7AA, size: 0x8, addend: 0x0, symName: __ZNSt3__119__allocate_at_leastB7v160006INS_9allocatorINS_6vectorIbNS1_IbEEEEEEEENS_19__allocation_resultINS_16allocator_traitsIT_E7pointerEEERS8_m, symObjAddr: 0x4340, symBinAddr: 0x1000048B0, symSize: 0x40 }
  - { offsetInCU: 0xD7ED, offset: 0xD7ED, size: 0x8, addend: 0x0, symName: __ZNSt3__112__to_addressB7v160006INS_6vectorIbNS_9allocatorIbEEEEEEPT_S6_, symObjAddr: 0x4620, symBinAddr: 0x100004B90, symSize: 0x10 }
  - { offsetInCU: 0xD83E, offset: 0xD83E, size: 0x8, addend: 0x0, symName: __ZNSt3__18distanceB7v160006INS_14__bit_iteratorINS_6vectorIbNS_9allocatorIbEEEELb1ELm0EEEEENS_15iterator_traitsIT_E15difference_typeES8_S8_, symObjAddr: 0x4AC0, symBinAddr: 0x100005030, symSize: 0x50 }
  - { offsetInCU: 0xD881, offset: 0xD881, size: 0x8, addend: 0x0, symName: __ZNSt3__14copyB7v160006INS_6vectorIbNS_9allocatorIbEEEELb1EEENS_14__bit_iteratorIT_Lb0EXLi0EEEENS5_IS6_XT0_EXLi0EEEES8_S7_, symObjAddr: 0x4B10, symBinAddr: 0x100005080, symSize: 0x100 }
  - { offsetInCU: 0xD8E1, offset: 0xD8E1, size: 0x8, addend: 0x0, symName: __ZNSt3__110__distanceB7v160006INS_14__bit_iteratorINS_6vectorIbNS_9allocatorIbEEEELb1ELm0EEEEENS_15iterator_traitsIT_E15difference_typeES8_S8_NS_26random_access_iterator_tagE, symObjAddr: 0x4C10, symBinAddr: 0x100005180, symSize: 0x30 }
  - { offsetInCU: 0xD92E, offset: 0xD92E, size: 0x8, addend: 0x0, symName: __ZNSt3__1miB7v160006ERKNS_14__bit_iteratorINS_6vectorIbNS_9allocatorIbEEEELb1ELm0EEES7_, symObjAddr: 0x4C40, symBinAddr: 0x1000051B0, symSize: 0x40 }
  - { offsetInCU: 0xD96B, offset: 0xD96B, size: 0x8, addend: 0x0, symName: __ZNSt3__13minB7v160006IlEERKT_S3_S3_, symObjAddr: 0x53B0, symBinAddr: 0x100005920, symSize: 0x30 }
  - { offsetInCU: 0xD9AE, offset: 0xD9AE, size: 0x8, addend: 0x0, symName: __ZNSt3__112__to_addressB7v160006IKmEEPT_S3_, symObjAddr: 0x5420, symBinAddr: 0x100005990, symSize: 0x10 }
  - { offsetInCU: 0xD9E3, offset: 0xD9E3, size: 0x8, addend: 0x0, symName: __ZNSt3__13minB7v160006IlNS_6__lessIllEEEERKT_S5_S5_T0_, symObjAddr: 0x5430, symBinAddr: 0x1000059A0, symSize: 0x50 }
  - { offsetInCU: 0xDA78, offset: 0xDA78, size: 0x8, addend: 0x0, symName: __ZNSt3__14copyB7v160006IPKmPmEET0_T_S5_S4_, symObjAddr: 0x54B0, symBinAddr: 0x100005A20, symSize: 0x40 }
  - { offsetInCU: 0xDAD2, offset: 0xDAD2, size: 0x8, addend: 0x0, symName: __ZNSt3__16__copyB7v160006INS_17_ClassicAlgPolicyEPKmS3_PmEENS_4pairIT0_T2_EES6_T1_S7_, symObjAddr: 0x54F0, symBinAddr: 0x100005A60, symSize: 0x40 }
  - { offsetInCU: 0xDB3E, offset: 0xDB3E, size: 0x8, addend: 0x0, symName: __ZNSt3__123__dispatch_copy_or_moveB7v160006INS_17_ClassicAlgPolicyENS_11__copy_loopIS1_EENS_14__copy_trivialEPKmS6_PmEENS_4pairIT2_T4_EES9_T3_SA_, symObjAddr: 0x5530, symBinAddr: 0x100005AA0, symSize: 0x40 }
  - { offsetInCU: 0xDBBC, offset: 0xDBBC, size: 0x8, addend: 0x0, symName: __ZNSt3__121__unwrap_and_dispatchB7v160006INS_10__overloadINS_11__copy_loopINS_17_ClassicAlgPolicyEEENS_14__copy_trivialEEEPKmS8_PmLi0EEENS_4pairIT0_T2_EESB_T1_SC_, symObjAddr: 0x5570, symBinAddr: 0x100005AE0, symSize: 0xB0 }
  - { offsetInCU: 0xDC4B, offset: 0xDC4B, size: 0x8, addend: 0x0, symName: __ZNSt3__114__unwrap_rangeB7v160006IPKmS2_EENS_4pairIT0_S4_EET_S6_, symObjAddr: 0x5620, symBinAddr: 0x100005B90, symSize: 0x50 }
  - { offsetInCU: 0xDDE0, offset: 0xDDE0, size: 0x8, addend: 0x0, symName: __ZNSt3__113__unwrap_iterB7v160006IPmNS_18__unwrap_iter_implIS1_Lb1EEELi0EEEDTclsrT0_8__unwrapclsr3stdE7declvalIT_EEEES5_, symObjAddr: 0x56B0, symBinAddr: 0x100005C20, symSize: 0x20 }
  - { offsetInCU: 0xDE24, offset: 0xDE24, size: 0x8, addend: 0x0, symName: __ZNSt3__19make_pairB7v160006IPKmPmEENS_4pairINS_18__unwrap_ref_decayIT_E4typeENS5_IT0_E4typeEEEOS6_OS9_, symObjAddr: 0x56D0, symBinAddr: 0x100005C40, symSize: 0x30 }
  - { offsetInCU: 0xDE73, offset: 0xDE73, size: 0x8, addend: 0x0, symName: __ZNSt3__114__rewrap_rangeB7v160006IPKmS2_EET_S3_T0_, symObjAddr: 0x5700, symBinAddr: 0x100005C70, symSize: 0x30 }
  - { offsetInCU: 0xDEBF, offset: 0xDEBF, size: 0x8, addend: 0x0, symName: __ZNSt3__113__rewrap_iterB7v160006IPmS1_NS_18__unwrap_iter_implIS1_Lb1EEEEET_S4_T0_, symObjAddr: 0x5730, symBinAddr: 0x100005CA0, symSize: 0x40 }
  - { offsetInCU: 0xDF14, offset: 0xDF14, size: 0x8, addend: 0x0, symName: __ZNSt3__19make_pairB7v160006IPKmS2_EENS_4pairINS_18__unwrap_ref_decayIT_E4typeENS4_IT0_E4typeEEEOS5_OS8_, symObjAddr: 0x5770, symBinAddr: 0x100005CE0, symSize: 0x30 }
  - { offsetInCU: 0xDF63, offset: 0xDF63, size: 0x8, addend: 0x0, symName: __ZNSt3__113__unwrap_iterB7v160006IPKmNS_18__unwrap_iter_implIS2_Lb1EEELi0EEEDTclsrT0_8__unwrapclsr3stdE7declvalIT_EEEES6_, symObjAddr: 0x57A0, symBinAddr: 0x100005D10, symSize: 0x20 }
  - { offsetInCU: 0xE0CE, offset: 0xE0CE, size: 0x8, addend: 0x0, symName: __ZNSt3__119__copy_trivial_implB7v160006IKmmEENS_4pairIPT_PT0_EES4_S4_S6_, symObjAddr: 0x5840, symBinAddr: 0x100005DB0, symSize: 0x70 }
  - { offsetInCU: 0xE136, offset: 0xE136, size: 0x8, addend: 0x0, symName: __ZNSt3__19make_pairB7v160006IRPKmPmEENS_4pairINS_18__unwrap_ref_decayIT_E4typeENS6_IT0_E4typeEEEOS7_OSA_, symObjAddr: 0x58B0, symBinAddr: 0x100005E20, symSize: 0x30 }
  - { offsetInCU: 0xE1D8, offset: 0xE1D8, size: 0x8, addend: 0x0, symName: __ZNSt3__113__rewrap_iterB7v160006IPKmS2_NS_18__unwrap_iter_implIS2_Lb1EEEEET_S5_T0_, symObjAddr: 0x59C0, symBinAddr: 0x100005F30, symSize: 0x40 }
  - { offsetInCU: 0xE22D, offset: 0xE22D, size: 0x8, addend: 0x0, symName: __ZNSt3__118__debug_db_erase_cB7v160006INS_6vectorINS1_IbNS_9allocatorIbEEEENS2_IS4_EEEEEEvPT_, symObjAddr: 0x5CF0, symBinAddr: 0x100006260, symSize: 0x10 }
  - { offsetInCU: 0xE25E, offset: 0xE25E, size: 0x8, addend: 0x0, symName: __ZNSt3__125__debug_db_invalidate_allB7v160006INS_6vectorIbNS_9allocatorIbEEE16__destroy_vectorEEEvPT_, symObjAddr: 0x5FD0, symBinAddr: 0x100006540, symSize: 0x10 }
  - { offsetInCU: 0xE55F, offset: 0xE55F, size: 0x8, addend: 0x0, symName: __ZNSt3__13maxB7v160006ImEERKT_S3_S3_, symObjAddr: 0x78D0, symBinAddr: 0x100007E40, symSize: 0x30 }
  - { offsetInCU: 0xE9FB, offset: 0xE9FB, size: 0x8, addend: 0x0, symName: __ZNSt3__14swapB7v160006IPPP4CellEENS_9enable_ifIXaasr21is_move_constructibleIT_EE5valuesr18is_move_assignableIS6_EE5valueEvE4typeERS6_S9_, symObjAddr: 0x7F60, symBinAddr: 0x1000084D0, symSize: 0x40 }
  - { offsetInCU: 0xEA4C, offset: 0xEA4C, size: 0x8, addend: 0x0, symName: __ZNSt3__14moveB7v160006IPPP4CellS4_EET0_T_S6_S5_, symObjAddr: 0x8070, symBinAddr: 0x1000085E0, symSize: 0x40 }
  - { offsetInCU: 0xEAA6, offset: 0xEAA6, size: 0x8, addend: 0x0, symName: __ZNSt3__112__to_addressB7v160006IPP4CellEEPT_S5_, symObjAddr: 0x8210, symBinAddr: 0x100008780, symSize: 0x10 }
  - { offsetInCU: 0xEADB, offset: 0xEADB, size: 0x8, addend: 0x0, symName: __ZNSt3__16__moveB7v160006INS_17_ClassicAlgPolicyEPPP4CellS5_S5_EENS_4pairIT0_T2_EES7_T1_S8_, symObjAddr: 0x8220, symBinAddr: 0x100008790, symSize: 0x40 }
  - { offsetInCU: 0xEB47, offset: 0xEB47, size: 0x8, addend: 0x0, symName: __ZNSt3__123__dispatch_copy_or_moveB7v160006INS_17_ClassicAlgPolicyENS_11__move_loopIS1_EENS_14__move_trivialEPPP4CellS8_S8_EENS_4pairIT2_T4_EESA_T3_SB_, symObjAddr: 0x8260, symBinAddr: 0x1000087D0, symSize: 0x40 }
  - { offsetInCU: 0xEBC5, offset: 0xEBC5, size: 0x8, addend: 0x0, symName: __ZNSt3__121__unwrap_and_dispatchB7v160006INS_10__overloadINS_11__move_loopINS_17_ClassicAlgPolicyEEENS_14__move_trivialEEEPPP4CellSA_SA_Li0EEENS_4pairIT0_T2_EESC_T1_SD_, symObjAddr: 0x82A0, symBinAddr: 0x100008810, symSize: 0xB0 }
  - { offsetInCU: 0xEC54, offset: 0xEC54, size: 0x8, addend: 0x0, symName: __ZNSt3__114__unwrap_rangeB7v160006IPPP4CellS4_EENS_4pairIT0_S6_EET_S8_, symObjAddr: 0x8350, symBinAddr: 0x1000088C0, symSize: 0x50 }
  - { offsetInCU: 0xEE18, offset: 0xEE18, size: 0x8, addend: 0x0, symName: __ZNSt3__113__unwrap_iterB7v160006IPPP4CellNS_18__unwrap_iter_implIS4_Lb1EEELi0EEEDTclsrT0_8__unwrapclsr3stdE7declvalIT_EEEES8_, symObjAddr: 0x83E0, symBinAddr: 0x100008950, symSize: 0x20 }
  - { offsetInCU: 0xEE5C, offset: 0xEE5C, size: 0x8, addend: 0x0, symName: __ZNSt3__19make_pairB7v160006IPPP4CellS4_EENS_4pairINS_18__unwrap_ref_decayIT_E4typeENS6_IT0_E4typeEEEOS7_OSA_, symObjAddr: 0x8400, symBinAddr: 0x100008970, symSize: 0x30 }
  - { offsetInCU: 0xEEAB, offset: 0xEEAB, size: 0x8, addend: 0x0, symName: __ZNSt3__114__rewrap_rangeB7v160006IPPP4CellS4_EET_S5_T0_, symObjAddr: 0x8430, symBinAddr: 0x1000089A0, symSize: 0x30 }
  - { offsetInCU: 0xEEF7, offset: 0xEEF7, size: 0x8, addend: 0x0, symName: __ZNSt3__113__rewrap_iterB7v160006IPPP4CellS4_NS_18__unwrap_iter_implIS4_Lb1EEEEET_S7_T0_, symObjAddr: 0x8460, symBinAddr: 0x1000089D0, symSize: 0x40 }
  - { offsetInCU: 0xEF4C, offset: 0xEF4C, size: 0x8, addend: 0x0, symName: __ZNSt3__119__copy_trivial_implB7v160006IPP4CellS3_EENS_4pairIPT_PT0_EES6_S6_S8_, symObjAddr: 0x84A0, symBinAddr: 0x100008A10, symSize: 0x70 }
  - { offsetInCU: 0xEFB4, offset: 0xEFB4, size: 0x8, addend: 0x0, symName: __ZNSt3__19make_pairB7v160006IRPPP4CellS4_EENS_4pairINS_18__unwrap_ref_decayIT_E4typeENS7_IT0_E4typeEEEOS8_OSB_, symObjAddr: 0x8510, symBinAddr: 0x100008A80, symSize: 0x30 }
  - { offsetInCU: 0xF056, offset: 0xF056, size: 0x8, addend: 0x0, symName: __ZNSt3__18distanceB7v160006INS_13move_iteratorIPPP4CellEEEENS_15iterator_traitsIT_E15difference_typeES8_S8_, symObjAddr: 0x8670, symBinAddr: 0x100008BE0, symSize: 0x40 }
  - { offsetInCU: 0xF099, offset: 0xF099, size: 0x8, addend: 0x0, symName: __ZNSt3__110__distanceB7v160006INS_13move_iteratorIPPP4CellEEEENS_15iterator_traitsIT_E15difference_typeES8_S8_NS_26random_access_iterator_tagE, symObjAddr: 0x8790, symBinAddr: 0x100008D00, symSize: 0x30 }
  - { offsetInCU: 0xF0E6, offset: 0xF0E6, size: 0x8, addend: 0x0, symName: __ZNSt3__1miB7v160006IPPP4CellS4_EEDTmicldtfp_4baseEcldtfp0_4baseEERKNS_13move_iteratorIT_EERKNS6_IT0_EE, symObjAddr: 0x87C0, symBinAddr: 0x100008D30, symSize: 0x40 }
  - { offsetInCU: 0xF135, offset: 0xF135, size: 0x8, addend: 0x0, symName: __ZNSt3__113move_backwardB7v160006IPPP4CellS4_EET0_T_S6_S5_, symObjAddr: 0x8A00, symBinAddr: 0x100008F70, symSize: 0x40 }
  - { offsetInCU: 0xF18F, offset: 0xF18F, size: 0x8, addend: 0x0, symName: __ZNSt3__115__move_backwardB7v160006INS_17_ClassicAlgPolicyEPPP4CellS5_S5_EENS_4pairIT0_T2_EES7_T1_S8_, symObjAddr: 0x8A40, symBinAddr: 0x100008FB0, symSize: 0x40 }
  - { offsetInCU: 0xF1FB, offset: 0xF1FB, size: 0x8, addend: 0x0, symName: __ZNSt3__123__dispatch_copy_or_moveB7v160006INS_17_ClassicAlgPolicyENS_20__move_backward_loopIS1_EENS_23__move_backward_trivialEPPP4CellS8_S8_EENS_4pairIT2_T4_EESA_T3_SB_, symObjAddr: 0x8A80, symBinAddr: 0x100008FF0, symSize: 0x40 }
  - { offsetInCU: 0xF279, offset: 0xF279, size: 0x8, addend: 0x0, symName: __ZNSt3__121__unwrap_and_dispatchB7v160006INS_10__overloadINS_20__move_backward_loopINS_17_ClassicAlgPolicyEEENS_23__move_backward_trivialEEEPPP4CellSA_SA_Li0EEENS_4pairIT0_T2_EESC_T1_SD_, symObjAddr: 0x8AC0, symBinAddr: 0x100009030, symSize: 0xB0 }
  - { offsetInCU: 0xF34E, offset: 0xF34E, size: 0x8, addend: 0x0, symName: __ZNSt3__128__copy_backward_trivial_implB7v160006IPP4CellS3_EENS_4pairIPT_PT0_EES6_S6_S8_, symObjAddr: 0x8BB0, symBinAddr: 0x100009120, symSize: 0x80 }
  - { offsetInCU: 0xF3B6, offset: 0xF3B6, size: 0x8, addend: 0x0, symName: __ZNSt3__19make_pairB7v160006IRPPP4CellS5_EENS_4pairINS_18__unwrap_ref_decayIT_E4typeENS7_IT0_E4typeEEEOS8_OSB_, symObjAddr: 0x8C30, symBinAddr: 0x1000091A0, symSize: 0x30 }
  - { offsetInCU: 0xF405, offset: 0xF405, size: 0x8, addend: 0x0, symName: __ZNSt3__13maxB7v160006ImNS_6__lessImmEEEERKT_S5_S5_T0_, symObjAddr: 0x8CC0, symBinAddr: 0x100009230, symSize: 0x50 }
  - { offsetInCU: 0xF45F, offset: 0xF45F, size: 0x8, addend: 0x0, symName: __ZNSt3__119__allocate_at_leastB7v160006INS_9allocatorIPP4CellEEEENS_19__allocation_resultINS_16allocator_traitsIT_E7pointerEEERS8_m, symObjAddr: 0x8E40, symBinAddr: 0x1000093B0, symSize: 0x40 }
  - { offsetInCU: 0xF4A2, offset: 0xF4A2, size: 0x8, addend: 0x0, symName: __ZNSt3__113__countl_zeroB7v160006IjEEiT_, symObjAddr: 0x97D0, symBinAddr: 0x100009D40, symSize: 0x40 }
  - { offsetInCU: 0xF4D7, offset: 0xF4D7, size: 0x8, addend: 0x0, symName: __ZNSt3__112__libcpp_clzB7v160006Ej, symObjAddr: 0x9BC0, symBinAddr: 0x10000A130, symSize: 0x20 }
  - { offsetInCU: 0xF503, offset: 0xF503, size: 0x8, addend: 0x0, symName: __ZNSt3__112__to_addressB7v160006IP4CellEEPT_S4_, symObjAddr: 0x9D20, symBinAddr: 0x10000A290, symSize: 0x10 }
  - { offsetInCU: 0xF538, offset: 0xF538, size: 0x8, addend: 0x0, symName: __ZNSt3__1neB7v160006ERKNS_16__deque_iteratorIP4CellPS2_RS2_PS3_lLl512EEES8_, symObjAddr: 0xA1E0, symBinAddr: 0x10000A750, symSize: 0x30 }
  - { offsetInCU: 0xF575, offset: 0xF575, size: 0x8, addend: 0x0, symName: __ZNSt3__1eqB7v160006ERKNS_16__deque_iteratorIP4CellPS2_RS2_PS3_lLl512EEES8_, symObjAddr: 0xA270, symBinAddr: 0x10000A7E0, symSize: 0x30 }
  - { offsetInCU: 0xF5B2, offset: 0xF5B2, size: 0x8, addend: 0x0, symName: __ZNSt3__119__debug_db_insert_cB7v160006INS_12basic_stringIcNS_11char_traitsIcEENS_9allocatorIcEEEEEEvPT_, symObjAddr: 0xA5B0, symBinAddr: 0x10000AB20, symSize: 0x10 }
  - { offsetInCU: 0xF5E3, offset: 0xF5E3, size: 0x8, addend: 0x0, symName: __ZNSt3__118__constexpr_strlenB7v160006EPKc, symObjAddr: 0xA650, symBinAddr: 0x10000ABC0, symSize: 0x20 }
  - { offsetInCU: 0xF60F, offset: 0xF60F, size: 0x8, addend: 0x0, symName: __ZNSt3__116__pad_and_outputB7v160006IcNS_11char_traitsIcEEEENS_19ostreambuf_iteratorIT_T0_EES6_PKS4_S8_S8_RNS_8ios_baseES4_, symObjAddr: 0xA880, symBinAddr: 0x10000ADF0, symSize: 0x220 }
  - { offsetInCU: 0xF6DF, offset: 0xF6DF, size: 0x8, addend: 0x0, symName: __ZNSt3__112__to_addressB7v160006IcEEPT_S2_, symObjAddr: 0xACE0, symBinAddr: 0x10000B250, symSize: 0x10 }
  - { offsetInCU: 0xF747, offset: 0xF747, size: 0x8, addend: 0x0, symName: __ZNSt3__19use_facetB7v160006INS_5ctypeIcEEEERKT_RKNS_6localeE, symObjAddr: 0xAF70, symBinAddr: 0x10000B4E0, symSize: 0x30 }
  - { offsetInCU: 0x10294, offset: 0x10294, size: 0x8, addend: 0x0, symName: __ZSt28__throw_bad_array_new_lengthB7v160006v, symObjAddr: 0x17C0, symBinAddr: 0x100001D30, symSize: 0x40 }
  - { offsetInCU: 0x10CF4, offset: 0x10CF4, size: 0x8, addend: 0x0, symName: __ZNSt3__124uniform_int_distributionIiEclINS_23mersenne_twister_engineIjLm32ELm624ELm397ELm31ELj2567483615ELm11ELj4294967295ELm7ELj2636928640ELm15ELj4022730752ELm18ELj1812433253EEEEEiRT_RKNS1_10param_typeE, symObjAddr: 0x9600, symBinAddr: 0x100009B70, symSize: 0x150 }
  - { offsetInCU: 0x131ED, offset: 0x131ED, size: 0x8, addend: 0x0, symName: _main, symObjAddr: 0x0, symBinAddr: 0x100000570, symSize: 0x240 }
  - { offsetInCU: 0x13269, offset: 0x13269, size: 0x8, addend: 0x0, symName: __ZNSt3__112basic_stringIcNS_11char_traitsIcEENS_9allocatorIcEEEC1B7v160006IDnEEPKc, symObjAddr: 0x280, symBinAddr: 0x1000007F0, symSize: 0x30 }
  - { offsetInCU: 0x1338E, offset: 0x1338E, size: 0x8, addend: 0x0, symName: __ZN4MazeC1Eii, symObjAddr: 0x2B0, symBinAddr: 0x100000820, symSize: 0x30 }
  - { offsetInCU: 0x133D4, offset: 0x133D4, size: 0x8, addend: 0x0, symName: __ZN4Maze12generateMazeEv, symObjAddr: 0x2E0, symBinAddr: 0x100000850, symSize: 0x280 }
  - { offsetInCU: 0x13459, offset: 0x13459, size: 0x8, addend: 0x0, symName: __ZN4Maze8findPathEii, symObjAddr: 0x560, symBinAddr: 0x100000AD0, symSize: 0x360 }
  - { offsetInCU: 0x1349B, offset: 0x1349B, size: 0x8, addend: 0x0, symName: __ZN4Maze9printMazeEv, symObjAddr: 0x8C0, symBinAddr: 0x100000E30, symSize: 0x230 }
  - { offsetInCU: 0x13531, offset: 0x13531, size: 0x8, addend: 0x0, symName: __ZN4MazeD1Ev, symObjAddr: 0xAF0, symBinAddr: 0x100001060, symSize: 0x20 }
  - { offsetInCU: 0x1355D, offset: 0x1355D, size: 0x8, addend: 0x0, symName: __ZN4MazeC2Eii, symObjAddr: 0xB10, symBinAddr: 0x100001080, symSize: 0x220 }
  - { offsetInCU: 0x135CD, offset: 0x135CD, size: 0x8, addend: 0x0, symName: __ZN4CellC1Eii, symObjAddr: 0xD30, symBinAddr: 0x1000012A0, symSize: 0x30 }
  - { offsetInCU: 0x13613, offset: 0x13613, size: 0x8, addend: 0x0, symName: __ZNSt3__16vectorI4CellNS_9allocatorIS1_EEEC1EmRKS1_, symObjAddr: 0xD60, symBinAddr: 0x1000012D0, symSize: 0x30 }
  - { offsetInCU: 0x1365D, offset: 0x1365D, size: 0x8, addend: 0x0, symName: __ZNSt3__16vectorINS0_I4CellNS_9allocatorIS1_EEEENS2_IS4_EEEC1EmRKS4_, symObjAddr: 0xD90, symBinAddr: 0x100001300, symSize: 0x30 }
  - { offsetInCU: 0x136A7, offset: 0x136A7, size: 0x8, addend: 0x0, symName: __ZNSt3__16vectorI4CellNS_9allocatorIS1_EEED1B7v160006Ev, symObjAddr: 0xDC0, symBinAddr: 0x100001330, symSize: 0x20 }
  - { offsetInCU: 0x136D1, offset: 0x136D1, size: 0x8, addend: 0x0, symName: __ZNSt3__16vectorIbNS_9allocatorIbEEEC1EmRKb, symObjAddr: 0xDE0, symBinAddr: 0x100001350, symSize: 0x30 }
  - { offsetInCU: 0x1371B, offset: 0x1371B, size: 0x8, addend: 0x0, symName: __ZNSt3__16vectorINS0_IbNS_9allocatorIbEEEENS1_IS3_EEEC1EmRKS3_, symObjAddr: 0xE10, symBinAddr: 0x100001380, symSize: 0x30 }
  - { offsetInCU: 0x13765, offset: 0x13765, size: 0x8, addend: 0x0, symName: __ZNSt3__16vectorIbNS_9allocatorIbEEED1B7v160006Ev, symObjAddr: 0xE40, symBinAddr: 0x1000013B0, symSize: 0x20 }
  - { offsetInCU: 0x1378F, offset: 0x1378F, size: 0x8, addend: 0x0, symName: __ZNSt3__16vectorINS0_I4CellNS_9allocatorIS1_EEEENS2_IS4_EEEixB7v160006Em, symObjAddr: 0xE60, symBinAddr: 0x1000013D0, symSize: 0x20 }
  - { offsetInCU: 0x137C6, offset: 0x137C6, size: 0x8, addend: 0x0, symName: __ZNSt3__16vectorI4CellNS_9allocatorIS1_EEEixB7v160006Em, symObjAddr: 0xE80, symBinAddr: 0x1000013F0, symSize: 0x20 }
  - { offsetInCU: 0x137FD, offset: 0x137FD, size: 0x8, addend: 0x0, symName: __ZNSt3__16vectorINS0_IbNS_9allocatorIbEEEENS1_IS3_EEED1B7v160006Ev, symObjAddr: 0xEA0, symBinAddr: 0x100001410, symSize: 0x20 }
  - { offsetInCU: 0x13827, offset: 0x13827, size: 0x8, addend: 0x0, symName: __ZNSt3__16vectorINS0_I4CellNS_9allocatorIS1_EEEENS2_IS4_EEED1B7v160006Ev, symObjAddr: 0xEC0, symBinAddr: 0x100001430, symSize: 0x20 }
  - { offsetInCU: 0x13851, offset: 0x13851, size: 0x8, addend: 0x0, symName: __ZN4CellC2Eii, symObjAddr: 0xEE0, symBinAddr: 0x100001450, symSize: 0x40 }
  - { offsetInCU: 0x13897, offset: 0x13897, size: 0x8, addend: 0x0, symName: __ZNSt3__16vectorI4CellNS_9allocatorIS1_EEEC2EmRKS1_, symObjAddr: 0xF20, symBinAddr: 0x100001490, symSize: 0xE0 }
  - { offsetInCU: 0x13900, offset: 0x13900, size: 0x8, addend: 0x0, symName: __ZNSt3__117__compressed_pairIP4CellNS_9allocatorIS1_EEEC1B7v160006IDnNS_18__default_init_tagEEEOT_OT0_, symObjAddr: 0x1000, symBinAddr: 0x100001570, symSize: 0x30 }
  - { offsetInCU: 0x13958, offset: 0x13958, size: 0x8, addend: 0x0, symName: __ZNSt3__16vectorI4CellNS_9allocatorIS1_EEE16__destroy_vectorC1ERS4_, symObjAddr: 0x1070, symBinAddr: 0x1000015E0, symSize: 0x30 }
  - { offsetInCU: 0x13991, offset: 0x13991, size: 0x8, addend: 0x0, symName: __ZNSt3__16vectorI4CellNS_9allocatorIS1_EEE11__vallocateB7v160006Em, symObjAddr: 0x10B0, symBinAddr: 0x100001620, symSize: 0xA0 }
  - { offsetInCU: 0x139D5, offset: 0x139D5, size: 0x8, addend: 0x0, symName: __ZNSt3__16vectorI4CellNS_9allocatorIS1_EEE18__construct_at_endEmRKS1_, symObjAddr: 0x1150, symBinAddr: 0x1000016C0, symSize: 0xC0 }
  - { offsetInCU: 0x13A56, offset: 0x13A56, size: 0x8, addend: 0x0, symName: __ZNSt3__128__exception_guard_exceptionsINS_6vectorI4CellNS_9allocatorIS2_EEE16__destroy_vectorEE10__completeB7v160006Ev, symObjAddr: 0x1210, symBinAddr: 0x100001780, symSize: 0x20 }
  - { offsetInCU: 0x13A7C, offset: 0x13A7C, size: 0x8, addend: 0x0, symName: __ZNSt3__128__exception_guard_exceptionsINS_6vectorI4CellNS_9allocatorIS2_EEE16__destroy_vectorEED1B7v160006Ev, symObjAddr: 0x1230, symBinAddr: 0x1000017A0, symSize: 0x20 }
  - { offsetInCU: 0x13AA6, offset: 0x13AA6, size: 0x8, addend: 0x0, symName: __ZNSt3__117__compressed_pairIP4CellNS_9allocatorIS1_EEEC2B7v160006IDnNS_18__default_init_tagEEEOT_OT0_, symObjAddr: 0x1250, symBinAddr: 0x1000017C0, symSize: 0x40 }
  - { offsetInCU: 0x13AFE, offset: 0x13AFE, size: 0x8, addend: 0x0, symName: __ZNSt3__122__compressed_pair_elemIP4CellLi0ELb0EEC2B7v160006IDnvEEOT_, symObjAddr: 0x1290, symBinAddr: 0x100001800, symSize: 0x20 }
  - { offsetInCU: 0x13B40, offset: 0x13B40, size: 0x8, addend: 0x0, symName: __ZNSt3__122__compressed_pair_elemINS_9allocatorI4CellEELi1ELb1EEC2B7v160006ENS_18__default_init_tagE, symObjAddr: 0x12B0, symBinAddr: 0x100001820, symSize: 0x20 }
  - { offsetInCU: 0x13B74, offset: 0x13B74, size: 0x8, addend: 0x0, symName: __ZNSt3__19allocatorI4CellEC2B7v160006Ev, symObjAddr: 0x12D0, symBinAddr: 0x100001840, symSize: 0x20 }
  - { offsetInCU: 0x13B9E, offset: 0x13B9E, size: 0x8, addend: 0x0, symName: __ZNSt3__116__non_trivial_ifILb1ENS_9allocatorI4CellEEEC2B7v160006Ev, symObjAddr: 0x12F0, symBinAddr: 0x100001860, symSize: 0x10 }
  - { offsetInCU: 0x13BC8, offset: 0x13BC8, size: 0x8, addend: 0x0, symName: __ZNSt3__128__exception_guard_exceptionsINS_6vectorI4CellNS_9allocatorIS2_EEE16__destroy_vectorEEC1B7v160006ES6_, symObjAddr: 0x1300, symBinAddr: 0x100001870, symSize: 0x30 }
  - { offsetInCU: 0x13C00, offset: 0x13C00, size: 0x8, addend: 0x0, symName: __ZNSt3__128__exception_guard_exceptionsINS_6vectorI4CellNS_9allocatorIS2_EEE16__destroy_vectorEEC2B7v160006ES6_, symObjAddr: 0x1330, symBinAddr: 0x1000018A0, symSize: 0x20 }
  - { offsetInCU: 0x13C38, offset: 0x13C38, size: 0x8, addend: 0x0, symName: __ZNSt3__16vectorI4CellNS_9allocatorIS1_EEE16__destroy_vectorC2ERS4_, symObjAddr: 0x1350, symBinAddr: 0x1000018C0, symSize: 0x20 }
  - { offsetInCU: 0x13C71, offset: 0x13C71, size: 0x8, addend: 0x0, symName: __ZNKSt3__16vectorI4CellNS_9allocatorIS1_EEE8max_sizeEv, symObjAddr: 0x1370, symBinAddr: 0x1000018E0, symSize: 0x60 }
  - { offsetInCU: 0x13C99, offset: 0x13C99, size: 0x8, addend: 0x0, symName: __ZNKSt3__16vectorI4CellNS_9allocatorIS1_EEE20__throw_length_errorB7v160006Ev, symObjAddr: 0x13D0, symBinAddr: 0x100001940, symSize: 0x20 }
  - { offsetInCU: 0x13CBF, offset: 0x13CBF, size: 0x8, addend: 0x0, symName: __ZNSt3__16vectorI4CellNS_9allocatorIS1_EEE7__allocB7v160006Ev, symObjAddr: 0x1430, symBinAddr: 0x1000019A0, symSize: 0x20 }
  - { offsetInCU: 0x13CE5, offset: 0x13CE5, size: 0x8, addend: 0x0, symName: __ZNSt3__16vectorI4CellNS_9allocatorIS1_EEE9__end_capB7v160006Ev, symObjAddr: 0x1450, symBinAddr: 0x1000019C0, symSize: 0x20 }
  - { offsetInCU: 0x13D0B, offset: 0x13D0B, size: 0x8, addend: 0x0, symName: __ZNKSt3__16vectorI4CellNS_9allocatorIS1_EEE14__annotate_newB7v160006Em, symObjAddr: 0x1470, symBinAddr: 0x1000019E0, symSize: 0xB0 }
  - { offsetInCU: 0x13D4A, offset: 0x13D4A, size: 0x8, addend: 0x0, symName: __ZNSt3__116allocator_traitsINS_9allocatorI4CellEEE8max_sizeB7v160006IS3_vEEmRKS3_, symObjAddr: 0x1550, symBinAddr: 0x100001AC0, symSize: 0x20 }
  - { offsetInCU: 0x13D78, offset: 0x13D78, size: 0x8, addend: 0x0, symName: __ZNKSt3__16vectorI4CellNS_9allocatorIS1_EEE7__allocB7v160006Ev, symObjAddr: 0x1570, symBinAddr: 0x100001AE0, symSize: 0x20 }
  - { offsetInCU: 0x13D9E, offset: 0x13D9E, size: 0x8, addend: 0x0, symName: __ZNSt3__114numeric_limitsIlE3maxB7v160006Ev, symObjAddr: 0x1590, symBinAddr: 0x100001B00, symSize: 0x10 }
  - { offsetInCU: 0x13DBC, offset: 0x13DBC, size: 0x8, addend: 0x0, symName: __ZNKSt3__16__lessImmEclB7v160006ERKmS3_, symObjAddr: 0x1600, symBinAddr: 0x100001B70, symSize: 0x30 }
  - { offsetInCU: 0x13DFE, offset: 0x13DFE, size: 0x8, addend: 0x0, symName: __ZNKSt3__19allocatorI4CellE8max_sizeB7v160006Ev, symObjAddr: 0x1630, symBinAddr: 0x100001BA0, symSize: 0x20 }
  - { offsetInCU: 0x13E24, offset: 0x13E24, size: 0x8, addend: 0x0, symName: __ZNKSt3__117__compressed_pairIP4CellNS_9allocatorIS1_EEE6secondB7v160006Ev, symObjAddr: 0x1650, symBinAddr: 0x100001BC0, symSize: 0x20 }
  - { offsetInCU: 0x13E4A, offset: 0x13E4A, size: 0x8, addend: 0x0, symName: __ZNKSt3__122__compressed_pair_elemINS_9allocatorI4CellEELi1ELb1EE5__getB7v160006Ev, symObjAddr: 0x1670, symBinAddr: 0x100001BE0, symSize: 0x10 }
  - { offsetInCU: 0x13E70, offset: 0x13E70, size: 0x8, addend: 0x0, symName: __ZNSt3__123__libcpp_numeric_limitsIlLb1EE3maxB7v160006Ev, symObjAddr: 0x1680, symBinAddr: 0x100001BF0, symSize: 0x10 }
  - { offsetInCU: 0x13E84, offset: 0x13E84, size: 0x8, addend: 0x0, symName: __ZNSt12length_errorC1B7v160006EPKc, symObjAddr: 0x1700, symBinAddr: 0x100001C70, symSize: 0x30 }
  - { offsetInCU: 0x13EBC, offset: 0x13EBC, size: 0x8, addend: 0x0, symName: __ZNSt12length_errorC2B7v160006EPKc, symObjAddr: 0x1730, symBinAddr: 0x100001CA0, symSize: 0x40 }
  - { offsetInCU: 0x13EF4, offset: 0x13EF4, size: 0x8, addend: 0x0, symName: __ZNSt3__19allocatorI4CellE8allocateB7v160006Em, symObjAddr: 0x1770, symBinAddr: 0x100001CE0, symSize: 0x50 }
  - { offsetInCU: 0x13F28, offset: 0x13F28, size: 0x8, addend: 0x0, symName: __ZNSt3__117__compressed_pairIP4CellNS_9allocatorIS1_EEE6secondB7v160006Ev, symObjAddr: 0x18D0, symBinAddr: 0x100001E40, symSize: 0x20 }
  - { offsetInCU: 0x13F4E, offset: 0x13F4E, size: 0x8, addend: 0x0, symName: __ZNSt3__122__compressed_pair_elemINS_9allocatorI4CellEELi1ELb1EE5__getB7v160006Ev, symObjAddr: 0x18F0, symBinAddr: 0x100001E60, symSize: 0x10 }
  - { offsetInCU: 0x13F74, offset: 0x13F74, size: 0x8, addend: 0x0, symName: __ZNSt3__117__compressed_pairIP4CellNS_9allocatorIS1_EEE5firstB7v160006Ev, symObjAddr: 0x1900, symBinAddr: 0x100001E70, symSize: 0x20 }
  - { offsetInCU: 0x13F9A, offset: 0x13F9A, size: 0x8, addend: 0x0, symName: __ZNSt3__122__compressed_pair_elemIP4CellLi0ELb0EE5__getB7v160006Ev, symObjAddr: 0x1920, symBinAddr: 0x100001E90, symSize: 0x10 }
  - { offsetInCU: 0x13FC0, offset: 0x13FC0, size: 0x8, addend: 0x0, symName: __ZNKSt3__16vectorI4CellNS_9allocatorIS1_EEE31__annotate_contiguous_containerB7v160006EPKvS6_S6_S6_, symObjAddr: 0x1930, symBinAddr: 0x100001EA0, symSize: 0x20 }
  - { offsetInCU: 0x14016, offset: 0x14016, size: 0x8, addend: 0x0, symName: __ZNKSt3__16vectorI4CellNS_9allocatorIS1_EEE4dataB7v160006Ev, symObjAddr: 0x1950, symBinAddr: 0x100001EC0, symSize: 0x20 }
  - { offsetInCU: 0x1403C, offset: 0x1403C, size: 0x8, addend: 0x0, symName: __ZNKSt3__16vectorI4CellNS_9allocatorIS1_EEE8capacityB7v160006Ev, symObjAddr: 0x1970, symBinAddr: 0x100001EE0, symSize: 0x30 }
  - { offsetInCU: 0x14062, offset: 0x14062, size: 0x8, addend: 0x0, symName: __ZNKSt3__16vectorI4CellNS_9allocatorIS1_EEE9__end_capB7v160006Ev, symObjAddr: 0x19B0, symBinAddr: 0x100001F20, symSize: 0x20 }
  - { offsetInCU: 0x14088, offset: 0x14088, size: 0x8, addend: 0x0, symName: __ZNKSt3__117__compressed_pairIP4CellNS_9allocatorIS1_EEE5firstB7v160006Ev, symObjAddr: 0x19D0, symBinAddr: 0x100001F40, symSize: 0x20 }
  - { offsetInCU: 0x140AE, offset: 0x140AE, size: 0x8, addend: 0x0, symName: __ZNKSt3__122__compressed_pair_elemIP4CellLi0ELb0EE5__getB7v160006Ev, symObjAddr: 0x19F0, symBinAddr: 0x100001F60, symSize: 0x10 }
  - { offsetInCU: 0x140ED, offset: 0x140ED, size: 0x8, addend: 0x0, symName: __ZNSt3__16vectorI4CellNS_9allocatorIS1_EEE21_ConstructTransactionC1B7v160006ERS4_m, symObjAddr: 0x1A00, symBinAddr: 0x100001F70, symSize: 0x30 }
  - { offsetInCU: 0x14135, offset: 0x14135, size: 0x8, addend: 0x0, symName: __ZNSt3__116allocator_traitsINS_9allocatorI4CellEEE9constructB7v160006IS2_JRKS2_EvEEvRS3_PT_DpOT0_, symObjAddr: 0x1A30, symBinAddr: 0x100001FA0, symSize: 0x30 }
  - { offsetInCU: 0x1418C, offset: 0x1418C, size: 0x8, addend: 0x0, symName: __ZNSt3__16vectorI4CellNS_9allocatorIS1_EEE21_ConstructTransactionD1B7v160006Ev, symObjAddr: 0x1A60, symBinAddr: 0x100001FD0, symSize: 0x20 }
  - { offsetInCU: 0x141B6, offset: 0x141B6, size: 0x8, addend: 0x0, symName: __ZNSt3__16vectorI4CellNS_9allocatorIS1_EEE21_ConstructTransactionC2B7v160006ERS4_m, symObjAddr: 0x1A80, symBinAddr: 0x100001FF0, symSize: 0x40 }
  - { offsetInCU: 0x141FE, offset: 0x141FE, size: 0x8, addend: 0x0, symName: __ZNSt3__19allocatorI4CellE9constructB7v160006IS1_JRKS1_EEEvPT_DpOT0_, symObjAddr: 0x1AC0, symBinAddr: 0x100002030, symSize: 0x30 }
  - { offsetInCU: 0x14254, offset: 0x14254, size: 0x8, addend: 0x0, symName: __ZNSt3__16vectorI4CellNS_9allocatorIS1_EEE21_ConstructTransactionD2B7v160006Ev, symObjAddr: 0x1AF0, symBinAddr: 0x100002060, symSize: 0x20 }
  - { offsetInCU: 0x1427E, offset: 0x1427E, size: 0x8, addend: 0x0, symName: __ZNSt3__128__exception_guard_exceptionsINS_6vectorI4CellNS_9allocatorIS2_EEE16__destroy_vectorEED2B7v160006Ev, symObjAddr: 0x1B10, symBinAddr: 0x100002080, symSize: 0x40 }
  - { offsetInCU: 0x142A8, offset: 0x142A8, size: 0x8, addend: 0x0, symName: __ZNSt3__16vectorI4CellNS_9allocatorIS1_EEE16__destroy_vectorclB7v160006Ev, symObjAddr: 0x1B50, symBinAddr: 0x1000020C0, symSize: 0x90 }
  - { offsetInCU: 0x142CE, offset: 0x142CE, size: 0x8, addend: 0x0, symName: __ZNKSt3__16vectorI4CellNS_9allocatorIS1_EEE17__annotate_deleteB7v160006Ev, symObjAddr: 0x1BE0, symBinAddr: 0x100002150, symSize: 0xB0 }
  - { offsetInCU: 0x142F4, offset: 0x142F4, size: 0x8, addend: 0x0, symName: __ZNSt3__16vectorI4CellNS_9allocatorIS1_EEE7__clearB7v160006Ev, symObjAddr: 0x1CA0, symBinAddr: 0x100002210, symSize: 0x20 }
  - { offsetInCU: 0x1431A, offset: 0x1431A, size: 0x8, addend: 0x0, symName: __ZNSt3__116allocator_traitsINS_9allocatorI4CellEEE10deallocateB7v160006ERS3_PS2_m, symObjAddr: 0x1CC0, symBinAddr: 0x100002230, symSize: 0x30 }
  - { offsetInCU: 0x1435C, offset: 0x1435C, size: 0x8, addend: 0x0, symName: __ZNKSt3__16vectorI4CellNS_9allocatorIS1_EEE4sizeB7v160006Ev, symObjAddr: 0x1CF0, symBinAddr: 0x100002260, symSize: 0x20 }
  - { offsetInCU: 0x14382, offset: 0x14382, size: 0x8, addend: 0x0, symName: __ZNSt3__16vectorI4CellNS_9allocatorIS1_EEE22__base_destruct_at_endB7v160006EPS1_, symObjAddr: 0x1D10, symBinAddr: 0x100002280, symSize: 0x80 }
  - { offsetInCU: 0x143C6, offset: 0x143C6, size: 0x8, addend: 0x0, symName: __ZNSt3__116allocator_traitsINS_9allocatorI4CellEEE7destroyB7v160006IS2_vEEvRS3_PT_, symObjAddr: 0x1D90, symBinAddr: 0x100002300, symSize: 0x30 }
  - { offsetInCU: 0x14403, offset: 0x14403, size: 0x8, addend: 0x0, symName: __ZNSt3__19allocatorI4CellE7destroyB7v160006EPS1_, symObjAddr: 0x1DC0, symBinAddr: 0x100002330, symSize: 0x10 }
  - { offsetInCU: 0x14437, offset: 0x14437, size: 0x8, addend: 0x0, symName: __ZNSt3__19allocatorI4CellE10deallocateB7v160006EPS1_m, symObjAddr: 0x1DD0, symBinAddr: 0x100002340, symSize: 0x40 }
  - { offsetInCU: 0x14479, offset: 0x14479, size: 0x8, addend: 0x0, symName: __ZNSt3__16vectorINS0_I4CellNS_9allocatorIS1_EEEENS2_IS4_EEEC2EmRKS4_, symObjAddr: 0x1F10, symBinAddr: 0x100002480, symSize: 0xE0 }
  - { offsetInCU: 0x144D8, offset: 0x144D8, size: 0x8, addend: 0x0, symName: __ZNSt3__117__compressed_pairIPNS_6vectorI4CellNS_9allocatorIS2_EEEENS3_IS5_EEEC1B7v160006IDnNS_18__default_init_tagEEEOT_OT0_, symObjAddr: 0x1FF0, symBinAddr: 0x100002560, symSize: 0x30 }
  - { offsetInCU: 0x14530, offset: 0x14530, size: 0x8, addend: 0x0, symName: __ZNSt3__16vectorINS0_I4CellNS_9allocatorIS1_EEEENS2_IS4_EEE16__destroy_vectorC1ERS6_, symObjAddr: 0x2060, symBinAddr: 0x1000025D0, symSize: 0x30 }
  - { offsetInCU: 0x14569, offset: 0x14569, size: 0x8, addend: 0x0, symName: __ZNSt3__16vectorINS0_I4CellNS_9allocatorIS1_EEEENS2_IS4_EEE11__vallocateB7v160006Em, symObjAddr: 0x20A0, symBinAddr: 0x100002610, symSize: 0xA0 }
  - { offsetInCU: 0x145AD, offset: 0x145AD, size: 0x8, addend: 0x0, symName: __ZNSt3__16vectorINS0_I4CellNS_9allocatorIS1_EEEENS2_IS4_EEE18__construct_at_endEmRKS4_, symObjAddr: 0x2140, symBinAddr: 0x1000026B0, symSize: 0xC0 }
  - { offsetInCU: 0x1462E, offset: 0x1462E, size: 0x8, addend: 0x0, symName: __ZNSt3__128__exception_guard_exceptionsINS_6vectorINS1_I4CellNS_9allocatorIS2_EEEENS3_IS5_EEE16__destroy_vectorEE10__completeB7v160006Ev, symObjAddr: 0x2200, symBinAddr: 0x100002770, symSize: 0x20 }
  - { offsetInCU: 0x14654, offset: 0x14654, size: 0x8, addend: 0x0, symName: __ZNSt3__128__exception_guard_exceptionsINS_6vectorINS1_I4CellNS_9allocatorIS2_EEEENS3_IS5_EEE16__destroy_vectorEED1B7v160006Ev, symObjAddr: 0x2220, symBinAddr: 0x100002790, symSize: 0x20 }
  - { offsetInCU: 0x1467E, offset: 0x1467E, size: 0x8, addend: 0x0, symName: __ZNSt3__117__compressed_pairIPNS_6vectorI4CellNS_9allocatorIS2_EEEENS3_IS5_EEEC2B7v160006IDnNS_18__default_init_tagEEEOT_OT0_, symObjAddr: 0x2240, symBinAddr: 0x1000027B0, symSize: 0x40 }
  - { offsetInCU: 0x146D6, offset: 0x146D6, size: 0x8, addend: 0x0, symName: __ZNSt3__122__compressed_pair_elemIPNS_6vectorI4CellNS_9allocatorIS2_EEEELi0ELb0EEC2B7v160006IDnvEEOT_, symObjAddr: 0x2280, symBinAddr: 0x1000027F0, symSize: 0x20 }
  - { offsetInCU: 0x14718, offset: 0x14718, size: 0x8, addend: 0x0, symName: __ZNSt3__122__compressed_pair_elemINS_9allocatorINS_6vectorI4CellNS1_IS3_EEEEEELi1ELb1EEC2B7v160006ENS_18__default_init_tagE, symObjAddr: 0x22A0, symBinAddr: 0x100002810, symSize: 0x20 }
  - { offsetInCU: 0x1474C, offset: 0x1474C, size: 0x8, addend: 0x0, symName: __ZNSt3__19allocatorINS_6vectorI4CellNS0_IS2_EEEEEC2B7v160006Ev, symObjAddr: 0x22C0, symBinAddr: 0x100002830, symSize: 0x20 }
  - { offsetInCU: 0x14776, offset: 0x14776, size: 0x8, addend: 0x0, symName: __ZNSt3__116__non_trivial_ifILb1ENS_9allocatorINS_6vectorI4CellNS1_IS3_EEEEEEEC2B7v160006Ev, symObjAddr: 0x22E0, symBinAddr: 0x100002850, symSize: 0x10 }
  - { offsetInCU: 0x147A0, offset: 0x147A0, size: 0x8, addend: 0x0, symName: __ZNSt3__128__exception_guard_exceptionsINS_6vectorINS1_I4CellNS_9allocatorIS2_EEEENS3_IS5_EEE16__destroy_vectorEEC1B7v160006ES8_, symObjAddr: 0x22F0, symBinAddr: 0x100002860, symSize: 0x30 }
  - { offsetInCU: 0x147D8, offset: 0x147D8, size: 0x8, addend: 0x0, symName: __ZNSt3__128__exception_guard_exceptionsINS_6vectorINS1_I4CellNS_9allocatorIS2_EEEENS3_IS5_EEE16__destroy_vectorEEC2B7v160006ES8_, symObjAddr: 0x2320, symBinAddr: 0x100002890, symSize: 0x20 }
  - { offsetInCU: 0x14810, offset: 0x14810, size: 0x8, addend: 0x0, symName: __ZNSt3__16vectorINS0_I4CellNS_9allocatorIS1_EEEENS2_IS4_EEE16__destroy_vectorC2ERS6_, symObjAddr: 0x2340, symBinAddr: 0x1000028B0, symSize: 0x20 }
  - { offsetInCU: 0x14849, offset: 0x14849, size: 0x8, addend: 0x0, symName: __ZNKSt3__16vectorINS0_I4CellNS_9allocatorIS1_EEEENS2_IS4_EEE8max_sizeEv, symObjAddr: 0x2360, symBinAddr: 0x1000028D0, symSize: 0x60 }
  - { offsetInCU: 0x14871, offset: 0x14871, size: 0x8, addend: 0x0, symName: __ZNKSt3__16vectorINS0_I4CellNS_9allocatorIS1_EEEENS2_IS4_EEE20__throw_length_errorB7v160006Ev, symObjAddr: 0x23C0, symBinAddr: 0x100002930, symSize: 0x20 }
  - { offsetInCU: 0x14897, offset: 0x14897, size: 0x8, addend: 0x0, symName: __ZNSt3__16vectorINS0_I4CellNS_9allocatorIS1_EEEENS2_IS4_EEE7__allocB7v160006Ev, symObjAddr: 0x2420, symBinAddr: 0x100002990, symSize: 0x20 }
  - { offsetInCU: 0x148BD, offset: 0x148BD, size: 0x8, addend: 0x0, symName: __ZNSt3__16vectorINS0_I4CellNS_9allocatorIS1_EEEENS2_IS4_EEE9__end_capB7v160006Ev, symObjAddr: 0x2440, symBinAddr: 0x1000029B0, symSize: 0x20 }
  - { offsetInCU: 0x148E3, offset: 0x148E3, size: 0x8, addend: 0x0, symName: __ZNKSt3__16vectorINS0_I4CellNS_9allocatorIS1_EEEENS2_IS4_EEE14__annotate_newB7v160006Em, symObjAddr: 0x2460, symBinAddr: 0x1000029D0, symSize: 0xA0 }
  - { offsetInCU: 0x14922, offset: 0x14922, size: 0x8, addend: 0x0, symName: __ZNSt3__116allocator_traitsINS_9allocatorINS_6vectorI4CellNS1_IS3_EEEEEEE8max_sizeB7v160006IS6_vEEmRKS6_, symObjAddr: 0x2500, symBinAddr: 0x100002A70, symSize: 0x20 }
  - { offsetInCU: 0x14950, offset: 0x14950, size: 0x8, addend: 0x0, symName: __ZNKSt3__16vectorINS0_I4CellNS_9allocatorIS1_EEEENS2_IS4_EEE7__allocB7v160006Ev, symObjAddr: 0x2520, symBinAddr: 0x100002A90, symSize: 0x20 }
  - { offsetInCU: 0x14976, offset: 0x14976, size: 0x8, addend: 0x0, symName: __ZNKSt3__19allocatorINS_6vectorI4CellNS0_IS2_EEEEE8max_sizeB7v160006Ev, symObjAddr: 0x2540, symBinAddr: 0x100002AB0, symSize: 0x20 }
  - { offsetInCU: 0x1499C, offset: 0x1499C, size: 0x8, addend: 0x0, symName: __ZNKSt3__117__compressed_pairIPNS_6vectorI4CellNS_9allocatorIS2_EEEENS3_IS5_EEE6secondB7v160006Ev, symObjAddr: 0x2560, symBinAddr: 0x100002AD0, symSize: 0x20 }
  - { offsetInCU: 0x149C2, offset: 0x149C2, size: 0x8, addend: 0x0, symName: __ZNKSt3__122__compressed_pair_elemINS_9allocatorINS_6vectorI4CellNS1_IS3_EEEEEELi1ELb1EE5__getB7v160006Ev, symObjAddr: 0x2580, symBinAddr: 0x100002AF0, symSize: 0x10 }
  - { offsetInCU: 0x149E8, offset: 0x149E8, size: 0x8, addend: 0x0, symName: __ZNSt3__19allocatorINS_6vectorI4CellNS0_IS2_EEEEE8allocateB7v160006Em, symObjAddr: 0x2590, symBinAddr: 0x100002B00, symSize: 0x50 }
  - { offsetInCU: 0x14A1C, offset: 0x14A1C, size: 0x8, addend: 0x0, symName: __ZNSt3__117__compressed_pairIPNS_6vectorI4CellNS_9allocatorIS2_EEEENS3_IS5_EEE6secondB7v160006Ev, symObjAddr: 0x25E0, symBinAddr: 0x100002B50, symSize: 0x20 }
  - { offsetInCU: 0x14A42, offset: 0x14A42, size: 0x8, addend: 0x0, symName: __ZNSt3__122__compressed_pair_elemINS_9allocatorINS_6vectorI4CellNS1_IS3_EEEEEELi1ELb1EE5__getB7v160006Ev, symObjAddr: 0x2600, symBinAddr: 0x100002B70, symSize: 0x10 }
  - { offsetInCU: 0x14A68, offset: 0x14A68, size: 0x8, addend: 0x0, symName: __ZNSt3__117__compressed_pairIPNS_6vectorI4CellNS_9allocatorIS2_EEEENS3_IS5_EEE5firstB7v160006Ev, symObjAddr: 0x2610, symBinAddr: 0x100002B80, symSize: 0x20 }
  - { offsetInCU: 0x14A8E, offset: 0x14A8E, size: 0x8, addend: 0x0, symName: __ZNSt3__122__compressed_pair_elemIPNS_6vectorI4CellNS_9allocatorIS2_EEEELi0ELb0EE5__getB7v160006Ev, symObjAddr: 0x2630, symBinAddr: 0x100002BA0, symSize: 0x10 }
  - { offsetInCU: 0x14AB4, offset: 0x14AB4, size: 0x8, addend: 0x0, symName: __ZNKSt3__16vectorINS0_I4CellNS_9allocatorIS1_EEEENS2_IS4_EEE31__annotate_contiguous_containerB7v160006EPKvS8_S8_S8_, symObjAddr: 0x2640, symBinAddr: 0x100002BB0, symSize: 0x20 }
  - { offsetInCU: 0x14B0A, offset: 0x14B0A, size: 0x8, addend: 0x0, symName: __ZNKSt3__16vectorINS0_I4CellNS_9allocatorIS1_EEEENS2_IS4_EEE4dataB7v160006Ev, symObjAddr: 0x2660, symBinAddr: 0x100002BD0, symSize: 0x20 }
  - { offsetInCU: 0x14B30, offset: 0x14B30, size: 0x8, addend: 0x0, symName: __ZNKSt3__16vectorINS0_I4CellNS_9allocatorIS1_EEEENS2_IS4_EEE8capacityB7v160006Ev, symObjAddr: 0x2680, symBinAddr: 0x100002BF0, symSize: 0x40 }
  - { offsetInCU: 0x14B56, offset: 0x14B56, size: 0x8, addend: 0x0, symName: __ZNKSt3__16vectorINS0_I4CellNS_9allocatorIS1_EEEENS2_IS4_EEE9__end_capB7v160006Ev, symObjAddr: 0x26D0, symBinAddr: 0x100002C40, symSize: 0x20 }
  - { offsetInCU: 0x14B7C, offset: 0x14B7C, size: 0x8, addend: 0x0, symName: __ZNKSt3__117__compressed_pairIPNS_6vectorI4CellNS_9allocatorIS2_EEEENS3_IS5_EEE5firstB7v160006Ev, symObjAddr: 0x26F0, symBinAddr: 0x100002C60, symSize: 0x20 }
  - { offsetInCU: 0x14BA2, offset: 0x14BA2, size: 0x8, addend: 0x0, symName: __ZNKSt3__122__compressed_pair_elemIPNS_6vectorI4CellNS_9allocatorIS2_EEEELi0ELb0EE5__getB7v160006Ev, symObjAddr: 0x2710, symBinAddr: 0x100002C80, symSize: 0x10 }
  - { offsetInCU: 0x14BE1, offset: 0x14BE1, size: 0x8, addend: 0x0, symName: __ZNSt3__16vectorINS0_I4CellNS_9allocatorIS1_EEEENS2_IS4_EEE21_ConstructTransactionC1B7v160006ERS6_m, symObjAddr: 0x2720, symBinAddr: 0x100002C90, symSize: 0x30 }
  - { offsetInCU: 0x14C29, offset: 0x14C29, size: 0x8, addend: 0x0, symName: __ZNSt3__116allocator_traitsINS_9allocatorINS_6vectorI4CellNS1_IS3_EEEEEEE9constructB7v160006IS5_JRKS5_EvEEvRS6_PT_DpOT0_, symObjAddr: 0x2750, symBinAddr: 0x100002CC0, symSize: 0x30 }
  - { offsetInCU: 0x14C80, offset: 0x14C80, size: 0x8, addend: 0x0, symName: __ZNSt3__16vectorINS0_I4CellNS_9allocatorIS1_EEEENS2_IS4_EEE21_ConstructTransactionD1B7v160006Ev, symObjAddr: 0x2780, symBinAddr: 0x100002CF0, symSize: 0x20 }
  - { offsetInCU: 0x14CAA, offset: 0x14CAA, size: 0x8, addend: 0x0, symName: __ZNSt3__16vectorINS0_I4CellNS_9allocatorIS1_EEEENS2_IS4_EEE21_ConstructTransactionC2B7v160006ERS6_m, symObjAddr: 0x27A0, symBinAddr: 0x100002D10, symSize: 0x40 }
  - { offsetInCU: 0x14CF2, offset: 0x14CF2, size: 0x8, addend: 0x0, symName: __ZNSt3__19allocatorINS_6vectorI4CellNS0_IS2_EEEEE9constructB7v160006IS4_JRKS4_EEEvPT_DpOT0_, symObjAddr: 0x27E0, symBinAddr: 0x100002D50, symSize: 0x30 }
  - { offsetInCU: 0x14D48, offset: 0x14D48, size: 0x8, addend: 0x0, symName: __ZNSt3__16vectorI4CellNS_9allocatorIS1_EEEC1ERKS4_, symObjAddr: 0x2810, symBinAddr: 0x100002D80, symSize: 0x30 }
  - { offsetInCU: 0x14D83, offset: 0x14D83, size: 0x8, addend: 0x0, symName: __ZNSt3__16vectorI4CellNS_9allocatorIS1_EEEC2ERKS4_, symObjAddr: 0x2840, symBinAddr: 0x100002DB0, symSize: 0x110 }
  - { offsetInCU: 0x14DE3, offset: 0x14DE3, size: 0x8, addend: 0x0, symName: __ZNSt3__116allocator_traitsINS_9allocatorI4CellEEE37select_on_container_copy_constructionB7v160006IS3_vvEES3_RKS3_, symObjAddr: 0x2950, symBinAddr: 0x100002EC0, symSize: 0x10 }
  - { offsetInCU: 0x14E17, offset: 0x14E17, size: 0x8, addend: 0x0, symName: __ZNSt3__117__compressed_pairIP4CellNS_9allocatorIS1_EEEC1B7v160006IDnS4_EEOT_OT0_, symObjAddr: 0x2960, symBinAddr: 0x100002ED0, symSize: 0x30 }
  - { offsetInCU: 0x14E6F, offset: 0x14E6F, size: 0x8, addend: 0x0, symName: __ZNSt3__16vectorI4CellNS_9allocatorIS1_EEE18__construct_at_endIPS1_Li0EEEvT_S7_m, symObjAddr: 0x2990, symBinAddr: 0x100002F00, symSize: 0x90 }
  - { offsetInCU: 0x14EE2, offset: 0x14EE2, size: 0x8, addend: 0x0, symName: __ZNSt3__117__compressed_pairIP4CellNS_9allocatorIS1_EEEC2B7v160006IDnS4_EEOT_OT0_, symObjAddr: 0x2A20, symBinAddr: 0x100002F90, symSize: 0x40 }
  - { offsetInCU: 0x14F3A, offset: 0x14F3A, size: 0x8, addend: 0x0, symName: __ZNSt3__122__compressed_pair_elemINS_9allocatorI4CellEELi1ELb1EEC2B7v160006IS3_vEEOT_, symObjAddr: 0x2A60, symBinAddr: 0x100002FD0, symSize: 0x10 }
  - { offsetInCU: 0x14F7C, offset: 0x14F7C, size: 0x8, addend: 0x0, symName: __ZNSt3__129_AllocatorDestroyRangeReverseINS_9allocatorI4CellEEPS2_EC1B7v160006ERS3_RS4_S7_, symObjAddr: 0x2BD0, symBinAddr: 0x100003140, symSize: 0x40 }
  - { offsetInCU: 0x14FD3, offset: 0x14FD3, size: 0x8, addend: 0x0, symName: __ZNSt3__116allocator_traitsINS_9allocatorI4CellEEE9constructB7v160006IS2_JRS2_EvEEvRS3_PT_DpOT0_, symObjAddr: 0x2C10, symBinAddr: 0x100003180, symSize: 0x30 }
  - { offsetInCU: 0x1502A, offset: 0x1502A, size: 0x8, addend: 0x0, symName: __ZNSt3__128__exception_guard_exceptionsINS_29_AllocatorDestroyRangeReverseINS_9allocatorI4CellEEPS3_EEE10__completeB7v160006Ev, symObjAddr: 0x2C40, symBinAddr: 0x1000031B0, symSize: 0x20 }
  - { offsetInCU: 0x15050, offset: 0x15050, size: 0x8, addend: 0x0, symName: __ZNSt3__128__exception_guard_exceptionsINS_29_AllocatorDestroyRangeReverseINS_9allocatorI4CellEEPS3_EEED1B7v160006Ev, symObjAddr: 0x2C60, symBinAddr: 0x1000031D0, symSize: 0x20 }
  - { offsetInCU: 0x1507A, offset: 0x1507A, size: 0x8, addend: 0x0, symName: __ZNSt3__128__exception_guard_exceptionsINS_29_AllocatorDestroyRangeReverseINS_9allocatorI4CellEEPS3_EEEC1B7v160006ES6_, symObjAddr: 0x2C80, symBinAddr: 0x1000031F0, symSize: 0x40 }
  - { offsetInCU: 0x150B2, offset: 0x150B2, size: 0x8, addend: 0x0, symName: __ZNSt3__128__exception_guard_exceptionsINS_29_AllocatorDestroyRangeReverseINS_9allocatorI4CellEEPS3_EEEC2B7v160006ES6_, symObjAddr: 0x2CC0, symBinAddr: 0x100003230, symSize: 0x30 }
  - { offsetInCU: 0x150EA, offset: 0x150EA, size: 0x8, addend: 0x0, symName: __ZNSt3__129_AllocatorDestroyRangeReverseINS_9allocatorI4CellEEPS2_EC2B7v160006ERS3_RS4_S7_, symObjAddr: 0x2CF0, symBinAddr: 0x100003260, symSize: 0x40 }
  - { offsetInCU: 0x15141, offset: 0x15141, size: 0x8, addend: 0x0, symName: __ZNSt3__19allocatorI4CellE9constructB7v160006IS1_JRS1_EEEvPT_DpOT0_, symObjAddr: 0x2D30, symBinAddr: 0x1000032A0, symSize: 0x30 }
  - { offsetInCU: 0x15197, offset: 0x15197, size: 0x8, addend: 0x0, symName: __ZNSt3__128__exception_guard_exceptionsINS_29_AllocatorDestroyRangeReverseINS_9allocatorI4CellEEPS3_EEED2B7v160006Ev, symObjAddr: 0x2D60, symBinAddr: 0x1000032D0, symSize: 0x40 }
  - { offsetInCU: 0x151C1, offset: 0x151C1, size: 0x8, addend: 0x0, symName: __ZNKSt3__129_AllocatorDestroyRangeReverseINS_9allocatorI4CellEEPS2_EclB7v160006Ev, symObjAddr: 0x2DA0, symBinAddr: 0x100003310, symSize: 0x60 }
  - { offsetInCU: 0x151E7, offset: 0x151E7, size: 0x8, addend: 0x0, symName: __ZNSt3__116reverse_iteratorIP4CellEC1B7v160006ES2_, symObjAddr: 0x2E70, symBinAddr: 0x1000033E0, symSize: 0x30 }
  - { offsetInCU: 0x1521F, offset: 0x1521F, size: 0x8, addend: 0x0, symName: __ZNSt3__116reverse_iteratorIP4CellEppB7v160006Ev, symObjAddr: 0x2F00, symBinAddr: 0x100003470, symSize: 0x20 }
  - { offsetInCU: 0x15245, offset: 0x15245, size: 0x8, addend: 0x0, symName: __ZNKSt3__116reverse_iteratorIP4CellE4baseB7v160006Ev, symObjAddr: 0x2F20, symBinAddr: 0x100003490, symSize: 0x20 }
  - { offsetInCU: 0x15270, offset: 0x15270, size: 0x8, addend: 0x0, symName: __ZNSt3__119__to_address_helperINS_16reverse_iteratorIP4CellEEvE6__callB7v160006ERKS4_, symObjAddr: 0x2F40, symBinAddr: 0x1000034B0, symSize: 0x40 }
  - { offsetInCU: 0x15293, offset: 0x15293, size: 0x8, addend: 0x0, symName: __ZNKSt3__116reverse_iteratorIP4CellEptB7v160006Ev, symObjAddr: 0x2F80, symBinAddr: 0x1000034F0, symSize: 0x20 }
  - { offsetInCU: 0x152B9, offset: 0x152B9, size: 0x8, addend: 0x0, symName: __ZNKSt3__116reverse_iteratorIP4CellEdeB7v160006Ev, symObjAddr: 0x2FA0, symBinAddr: 0x100003510, symSize: 0x30 }
  - { offsetInCU: 0x152ED, offset: 0x152ED, size: 0x8, addend: 0x0, symName: __ZNSt3__116reverse_iteratorIP4CellEC2B7v160006ES2_, symObjAddr: 0x2FD0, symBinAddr: 0x100003540, symSize: 0x30 }
  - { offsetInCU: 0x15325, offset: 0x15325, size: 0x8, addend: 0x0, symName: __ZNSt3__16vectorINS0_I4CellNS_9allocatorIS1_EEEENS2_IS4_EEE21_ConstructTransactionD2B7v160006Ev, symObjAddr: 0x3000, symBinAddr: 0x100003570, symSize: 0x20 }
  - { offsetInCU: 0x1534F, offset: 0x1534F, size: 0x8, addend: 0x0, symName: __ZNSt3__128__exception_guard_exceptionsINS_6vectorINS1_I4CellNS_9allocatorIS2_EEEENS3_IS5_EEE16__destroy_vectorEED2B7v160006Ev, symObjAddr: 0x3020, symBinAddr: 0x100003590, symSize: 0x40 }
  - { offsetInCU: 0x15379, offset: 0x15379, size: 0x8, addend: 0x0, symName: __ZNSt3__16vectorINS0_I4CellNS_9allocatorIS1_EEEENS2_IS4_EEE16__destroy_vectorclB7v160006Ev, symObjAddr: 0x3060, symBinAddr: 0x1000035D0, symSize: 0x90 }
  - { offsetInCU: 0x1539F, offset: 0x1539F, size: 0x8, addend: 0x0, symName: __ZNKSt3__16vectorINS0_I4CellNS_9allocatorIS1_EEEENS2_IS4_EEE17__annotate_deleteB7v160006Ev, symObjAddr: 0x30F0, symBinAddr: 0x100003660, symSize: 0xB0 }
  - { offsetInCU: 0x153C5, offset: 0x153C5, size: 0x8, addend: 0x0, symName: __ZNSt3__16vectorINS0_I4CellNS_9allocatorIS1_EEEENS2_IS4_EEE7__clearB7v160006Ev, symObjAddr: 0x31B0, symBinAddr: 0x100003720, symSize: 0x20 }
  - { offsetInCU: 0x153EB, offset: 0x153EB, size: 0x8, addend: 0x0, symName: __ZNSt3__116allocator_traitsINS_9allocatorINS_6vectorI4CellNS1_IS3_EEEEEEE10deallocateB7v160006ERS6_PS5_m, symObjAddr: 0x31D0, symBinAddr: 0x100003740, symSize: 0x30 }
  - { offsetInCU: 0x1542D, offset: 0x1542D, size: 0x8, addend: 0x0, symName: __ZNKSt3__16vectorINS0_I4CellNS_9allocatorIS1_EEEENS2_IS4_EEE4sizeB7v160006Ev, symObjAddr: 0x3200, symBinAddr: 0x100003770, symSize: 0x30 }
  - { offsetInCU: 0x15453, offset: 0x15453, size: 0x8, addend: 0x0, symName: __ZNSt3__16vectorINS0_I4CellNS_9allocatorIS1_EEEENS2_IS4_EEE22__base_destruct_at_endB7v160006EPS4_, symObjAddr: 0x3230, symBinAddr: 0x1000037A0, symSize: 0x80 }
  - { offsetInCU: 0x15497, offset: 0x15497, size: 0x8, addend: 0x0, symName: __ZNSt3__116allocator_traitsINS_9allocatorINS_6vectorI4CellNS1_IS3_EEEEEEE7destroyB7v160006IS5_vEEvRS6_PT_, symObjAddr: 0x32B0, symBinAddr: 0x100003820, symSize: 0x30 }
  - { offsetInCU: 0x154D4, offset: 0x154D4, size: 0x8, addend: 0x0, symName: __ZNSt3__19allocatorINS_6vectorI4CellNS0_IS2_EEEEE7destroyB7v160006EPS4_, symObjAddr: 0x32E0, symBinAddr: 0x100003850, symSize: 0x20 }
  - { offsetInCU: 0x15508, offset: 0x15508, size: 0x8, addend: 0x0, symName: __ZNSt3__19allocatorINS_6vectorI4CellNS0_IS2_EEEEE10deallocateB7v160006EPS4_m, symObjAddr: 0x3300, symBinAddr: 0x100003870, symSize: 0x50 }
  - { offsetInCU: 0x1554A, offset: 0x1554A, size: 0x8, addend: 0x0, symName: __ZNSt3__16vectorI4CellNS_9allocatorIS1_EEED2B7v160006Ev, symObjAddr: 0x3350, symBinAddr: 0x1000038C0, symSize: 0x40 }
  - { offsetInCU: 0x15574, offset: 0x15574, size: 0x8, addend: 0x0, symName: __ZNSt3__16vectorIbNS_9allocatorIbEEEC2EmRKb, symObjAddr: 0x3390, symBinAddr: 0x100003900, symSize: 0x80 }
  - { offsetInCU: 0x155C3, offset: 0x155C3, size: 0x8, addend: 0x0, symName: __ZNSt3__117__compressed_pairImNS_9allocatorImEEEC1B7v160006IiNS_18__default_init_tagEEEOT_OT0_, symObjAddr: 0x3410, symBinAddr: 0x100003980, symSize: 0x30 }
  - { offsetInCU: 0x1561B, offset: 0x1561B, size: 0x8, addend: 0x0, symName: __ZNSt3__16vectorIbNS_9allocatorIbEEE11__vallocateB7v160006Em, symObjAddr: 0x3440, symBinAddr: 0x1000039B0, symSize: 0xA0 }
  - { offsetInCU: 0x1565F, offset: 0x1565F, size: 0x8, addend: 0x0, symName: __ZNSt3__16vectorIbNS_9allocatorIbEEE18__construct_at_endB7v160006Emb, symObjAddr: 0x34E0, symBinAddr: 0x100003A50, symSize: 0xE0 }
  - { offsetInCU: 0x156B4, offset: 0x156B4, size: 0x8, addend: 0x0, symName: __ZNSt3__117__compressed_pairImNS_9allocatorImEEEC2B7v160006IiNS_18__default_init_tagEEEOT_OT0_, symObjAddr: 0x35C0, symBinAddr: 0x100003B30, symSize: 0x40 }
  - { offsetInCU: 0x1570C, offset: 0x1570C, size: 0x8, addend: 0x0, symName: __ZNSt3__122__compressed_pair_elemImLi0ELb0EEC2B7v160006IivEEOT_, symObjAddr: 0x3600, symBinAddr: 0x100003B70, symSize: 0x20 }
  - { offsetInCU: 0x1574E, offset: 0x1574E, size: 0x8, addend: 0x0, symName: __ZNSt3__122__compressed_pair_elemINS_9allocatorImEELi1ELb1EEC2B7v160006ENS_18__default_init_tagE, symObjAddr: 0x3620, symBinAddr: 0x100003B90, symSize: 0x20 }
  - { offsetInCU: 0x15782, offset: 0x15782, size: 0x8, addend: 0x0, symName: __ZNSt3__19allocatorImEC2B7v160006Ev, symObjAddr: 0x3640, symBinAddr: 0x100003BB0, symSize: 0x20 }
  - { offsetInCU: 0x157AC, offset: 0x157AC, size: 0x8, addend: 0x0, symName: __ZNSt3__116__non_trivial_ifILb1ENS_9allocatorImEEEC2B7v160006Ev, symObjAddr: 0x3660, symBinAddr: 0x100003BD0, symSize: 0x10 }
  - { offsetInCU: 0x157D6, offset: 0x157D6, size: 0x8, addend: 0x0, symName: __ZNKSt3__16vectorIbNS_9allocatorIbEEE8max_sizeEv, symObjAddr: 0x3670, symBinAddr: 0x100003BE0, symSize: 0x70 }
  - { offsetInCU: 0x1581C, offset: 0x1581C, size: 0x8, addend: 0x0, symName: __ZNKSt3__16vectorIbNS_9allocatorIbEEE20__throw_length_errorB7v160006Ev, symObjAddr: 0x36E0, symBinAddr: 0x100003C50, symSize: 0x20 }
  - { offsetInCU: 0x15842, offset: 0x15842, size: 0x8, addend: 0x0, symName: __ZNSt3__16vectorIbNS_9allocatorIbEEE7__allocB7v160006Ev, symObjAddr: 0x3740, symBinAddr: 0x100003CB0, symSize: 0x20 }
  - { offsetInCU: 0x15868, offset: 0x15868, size: 0x8, addend: 0x0, symName: __ZNSt3__16vectorIbNS_9allocatorIbEEE26__external_cap_to_internalB7v160006Em, symObjAddr: 0x3760, symBinAddr: 0x100003CD0, symSize: 0x20 }
  - { offsetInCU: 0x1588C, offset: 0x1588C, size: 0x8, addend: 0x0, symName: __ZNSt3__16vectorIbNS_9allocatorIbEEE5__capB7v160006Ev, symObjAddr: 0x3780, symBinAddr: 0x100003CF0, symSize: 0x20 }
  - { offsetInCU: 0x158BC, offset: 0x158BC, size: 0x8, addend: 0x0, symName: __ZNSt3__116allocator_traitsINS_9allocatorImEEE8max_sizeB7v160006IS2_vEEmRKS2_, symObjAddr: 0x37A0, symBinAddr: 0x100003D10, symSize: 0x20 }
  - { offsetInCU: 0x158EA, offset: 0x158EA, size: 0x8, addend: 0x0, symName: __ZNKSt3__16vectorIbNS_9allocatorIbEEE7__allocB7v160006Ev, symObjAddr: 0x37C0, symBinAddr: 0x100003D30, symSize: 0x20 }
  - { offsetInCU: 0x15910, offset: 0x15910, size: 0x8, addend: 0x0, symName: __ZNSt3__114numeric_limitsImE3maxB7v160006Ev, symObjAddr: 0x37E0, symBinAddr: 0x100003D50, symSize: 0x10 }
  - { offsetInCU: 0x15924, offset: 0x15924, size: 0x8, addend: 0x0, symName: __ZNSt3__16vectorIbNS_9allocatorIbEEE26__internal_cap_to_externalB7v160006Em, symObjAddr: 0x37F0, symBinAddr: 0x100003D60, symSize: 0x20 }
  - { offsetInCU: 0x15948, offset: 0x15948, size: 0x8, addend: 0x0, symName: __ZNKSt3__19allocatorImE8max_sizeB7v160006Ev, symObjAddr: 0x3810, symBinAddr: 0x100003D80, symSize: 0x20 }
  - { offsetInCU: 0x1596E, offset: 0x1596E, size: 0x8, addend: 0x0, symName: __ZNKSt3__117__compressed_pairImNS_9allocatorImEEE6secondB7v160006Ev, symObjAddr: 0x3830, symBinAddr: 0x100003DA0, symSize: 0x20 }
  - { offsetInCU: 0x15994, offset: 0x15994, size: 0x8, addend: 0x0, symName: __ZNKSt3__122__compressed_pair_elemINS_9allocatorImEELi1ELb1EE5__getB7v160006Ev, symObjAddr: 0x3850, symBinAddr: 0x100003DC0, symSize: 0x10 }
  - { offsetInCU: 0x159BA, offset: 0x159BA, size: 0x8, addend: 0x0, symName: __ZNSt3__123__libcpp_numeric_limitsImLb1EE3maxB7v160006Ev, symObjAddr: 0x3860, symBinAddr: 0x100003DD0, symSize: 0x10 }
  - { offsetInCU: 0x159CE, offset: 0x159CE, size: 0x8, addend: 0x0, symName: __ZNSt3__19allocatorImE8allocateB7v160006Em, symObjAddr: 0x3870, symBinAddr: 0x100003DE0, symSize: 0x50 }
  - { offsetInCU: 0x15A02, offset: 0x15A02, size: 0x8, addend: 0x0, symName: __ZNSt3__117__compressed_pairImNS_9allocatorImEEE6secondB7v160006Ev, symObjAddr: 0x38C0, symBinAddr: 0x100003E30, symSize: 0x20 }
  - { offsetInCU: 0x15A28, offset: 0x15A28, size: 0x8, addend: 0x0, symName: __ZNSt3__122__compressed_pair_elemINS_9allocatorImEELi1ELb1EE5__getB7v160006Ev, symObjAddr: 0x38E0, symBinAddr: 0x100003E50, symSize: 0x10 }
  - { offsetInCU: 0x15A4E, offset: 0x15A4E, size: 0x8, addend: 0x0, symName: __ZNSt3__117__compressed_pairImNS_9allocatorImEEE5firstB7v160006Ev, symObjAddr: 0x38F0, symBinAddr: 0x100003E60, symSize: 0x20 }
  - { offsetInCU: 0x15A74, offset: 0x15A74, size: 0x8, addend: 0x0, symName: __ZNSt3__122__compressed_pair_elemImLi0ELb0EE5__getB7v160006Ev, symObjAddr: 0x3910, symBinAddr: 0x100003E80, symSize: 0x10 }
  - { offsetInCU: 0x15A9A, offset: 0x15A9A, size: 0x8, addend: 0x0, symName: __ZNSt3__16vectorIbNS_9allocatorIbEEE11__make_iterB7v160006Em, symObjAddr: 0x39A0, symBinAddr: 0x100003F10, symSize: 0x50 }
  - { offsetInCU: 0x15ACF, offset: 0x15ACF, size: 0x8, addend: 0x0, symName: __ZNSt3__114__bit_iteratorINS_6vectorIbNS_9allocatorIbEEEELb0ELm0EEC1B7v160006ERKS5_, symObjAddr: 0x3B30, symBinAddr: 0x1000040A0, symSize: 0x30 }
  - { offsetInCU: 0x15B08, offset: 0x15B08, size: 0x8, addend: 0x0, symName: __ZNSt3__114__bit_iteratorINS_6vectorIbNS_9allocatorIbEEEELb0ELm0EEC2B7v160006ERKS5_, symObjAddr: 0x3D50, symBinAddr: 0x1000042C0, symSize: 0x30 }
  - { offsetInCU: 0x15B41, offset: 0x15B41, size: 0x8, addend: 0x0, symName: __ZNSt3__114__bit_iteratorINS_6vectorIbNS_9allocatorIbEEEELb0ELm0EEC1B7v160006EPmj, symObjAddr: 0x3E10, symBinAddr: 0x100004380, symSize: 0x30 }
  - { offsetInCU: 0x15B89, offset: 0x15B89, size: 0x8, addend: 0x0, symName: __ZNSt3__114__bit_iteratorINS_6vectorIbNS_9allocatorIbEEEELb0ELm0EEC2B7v160006EPmj, symObjAddr: 0x3E40, symBinAddr: 0x1000043B0, symSize: 0x30 }
  - { offsetInCU: 0x15BD1, offset: 0x15BD1, size: 0x8, addend: 0x0, symName: __ZNSt3__16vectorINS0_IbNS_9allocatorIbEEEENS1_IS3_EEEC2EmRKS3_, symObjAddr: 0x3E70, symBinAddr: 0x1000043E0, symSize: 0xE0 }
  - { offsetInCU: 0x15C30, offset: 0x15C30, size: 0x8, addend: 0x0, symName: __ZNSt3__117__compressed_pairIPNS_6vectorIbNS_9allocatorIbEEEENS2_IS4_EEEC1B7v160006IDnNS_18__default_init_tagEEEOT_OT0_, symObjAddr: 0x3F50, symBinAddr: 0x1000044C0, symSize: 0x30 }
  - { offsetInCU: 0x15C88, offset: 0x15C88, size: 0x8, addend: 0x0, symName: __ZNSt3__16vectorINS0_IbNS_9allocatorIbEEEENS1_IS3_EEE16__destroy_vectorC1ERS5_, symObjAddr: 0x3FC0, symBinAddr: 0x100004530, symSize: 0x30 }
  - { offsetInCU: 0x15CC1, offset: 0x15CC1, size: 0x8, addend: 0x0, symName: __ZNSt3__16vectorINS0_IbNS_9allocatorIbEEEENS1_IS3_EEE11__vallocateB7v160006Em, symObjAddr: 0x4000, symBinAddr: 0x100004570, symSize: 0xA0 }
  - { offsetInCU: 0x15D05, offset: 0x15D05, size: 0x8, addend: 0x0, symName: __ZNSt3__16vectorINS0_IbNS_9allocatorIbEEEENS1_IS3_EEE18__construct_at_endEmRKS3_, symObjAddr: 0x40A0, symBinAddr: 0x100004610, symSize: 0xC0 }
  - { offsetInCU: 0x15D86, offset: 0x15D86, size: 0x8, addend: 0x0, symName: __ZNSt3__128__exception_guard_exceptionsINS_6vectorINS1_IbNS_9allocatorIbEEEENS2_IS4_EEE16__destroy_vectorEE10__completeB7v160006Ev, symObjAddr: 0x4160, symBinAddr: 0x1000046D0, symSize: 0x20 }
  - { offsetInCU: 0x15DAC, offset: 0x15DAC, size: 0x8, addend: 0x0, symName: __ZNSt3__128__exception_guard_exceptionsINS_6vectorINS1_IbNS_9allocatorIbEEEENS2_IS4_EEE16__destroy_vectorEED1B7v160006Ev, symObjAddr: 0x4180, symBinAddr: 0x1000046F0, symSize: 0x20 }
  - { offsetInCU: 0x15DD6, offset: 0x15DD6, size: 0x8, addend: 0x0, symName: __ZNSt3__117__compressed_pairIPNS_6vectorIbNS_9allocatorIbEEEENS2_IS4_EEEC2B7v160006IDnNS_18__default_init_tagEEEOT_OT0_, symObjAddr: 0x41A0, symBinAddr: 0x100004710, symSize: 0x40 }
  - { offsetInCU: 0x15E2E, offset: 0x15E2E, size: 0x8, addend: 0x0, symName: __ZNSt3__122__compressed_pair_elemIPNS_6vectorIbNS_9allocatorIbEEEELi0ELb0EEC2B7v160006IDnvEEOT_, symObjAddr: 0x41E0, symBinAddr: 0x100004750, symSize: 0x20 }
  - { offsetInCU: 0x15E70, offset: 0x15E70, size: 0x8, addend: 0x0, symName: __ZNSt3__122__compressed_pair_elemINS_9allocatorINS_6vectorIbNS1_IbEEEEEELi1ELb1EEC2B7v160006ENS_18__default_init_tagE, symObjAddr: 0x4200, symBinAddr: 0x100004770, symSize: 0x20 }
  - { offsetInCU: 0x15EA4, offset: 0x15EA4, size: 0x8, addend: 0x0, symName: __ZNSt3__19allocatorINS_6vectorIbNS0_IbEEEEEC2B7v160006Ev, symObjAddr: 0x4220, symBinAddr: 0x100004790, symSize: 0x20 }
  - { offsetInCU: 0x15ECE, offset: 0x15ECE, size: 0x8, addend: 0x0, symName: __ZNSt3__116__non_trivial_ifILb1ENS_9allocatorINS_6vectorIbNS1_IbEEEEEEEC2B7v160006Ev, symObjAddr: 0x4240, symBinAddr: 0x1000047B0, symSize: 0x10 }
  - { offsetInCU: 0x15EF8, offset: 0x15EF8, size: 0x8, addend: 0x0, symName: __ZNSt3__128__exception_guard_exceptionsINS_6vectorINS1_IbNS_9allocatorIbEEEENS2_IS4_EEE16__destroy_vectorEEC1B7v160006ES7_, symObjAddr: 0x4250, symBinAddr: 0x1000047C0, symSize: 0x30 }
  - { offsetInCU: 0x15F30, offset: 0x15F30, size: 0x8, addend: 0x0, symName: __ZNSt3__128__exception_guard_exceptionsINS_6vectorINS1_IbNS_9allocatorIbEEEENS2_IS4_EEE16__destroy_vectorEEC2B7v160006ES7_, symObjAddr: 0x4280, symBinAddr: 0x1000047F0, symSize: 0x20 }
  - { offsetInCU: 0x15F68, offset: 0x15F68, size: 0x8, addend: 0x0, symName: __ZNSt3__16vectorINS0_IbNS_9allocatorIbEEEENS1_IS3_EEE16__destroy_vectorC2ERS5_, symObjAddr: 0x42A0, symBinAddr: 0x100004810, symSize: 0x20 }
  - { offsetInCU: 0x15FA1, offset: 0x15FA1, size: 0x8, addend: 0x0, symName: __ZNKSt3__16vectorINS0_IbNS_9allocatorIbEEEENS1_IS3_EEE8max_sizeEv, symObjAddr: 0x42C0, symBinAddr: 0x100004830, symSize: 0x60 }
  - { offsetInCU: 0x15FC9, offset: 0x15FC9, size: 0x8, addend: 0x0, symName: __ZNKSt3__16vectorINS0_IbNS_9allocatorIbEEEENS1_IS3_EEE20__throw_length_errorB7v160006Ev, symObjAddr: 0x4320, symBinAddr: 0x100004890, symSize: 0x20 }
  - { offsetInCU: 0x15FEF, offset: 0x15FEF, size: 0x8, addend: 0x0, symName: __ZNSt3__16vectorINS0_IbNS_9allocatorIbEEEENS1_IS3_EEE7__allocB7v160006Ev, symObjAddr: 0x4380, symBinAddr: 0x1000048F0, symSize: 0x20 }
  - { offsetInCU: 0x16015, offset: 0x16015, size: 0x8, addend: 0x0, symName: __ZNSt3__16vectorINS0_IbNS_9allocatorIbEEEENS1_IS3_EEE9__end_capB7v160006Ev, symObjAddr: 0x43A0, symBinAddr: 0x100004910, symSize: 0x20 }
  - { offsetInCU: 0x1603B, offset: 0x1603B, size: 0x8, addend: 0x0, symName: __ZNKSt3__16vectorINS0_IbNS_9allocatorIbEEEENS1_IS3_EEE14__annotate_newB7v160006Em, symObjAddr: 0x43C0, symBinAddr: 0x100004930, symSize: 0xA0 }
  - { offsetInCU: 0x1607A, offset: 0x1607A, size: 0x8, addend: 0x0, symName: __ZNSt3__116allocator_traitsINS_9allocatorINS_6vectorIbNS1_IbEEEEEEE8max_sizeB7v160006IS5_vEEmRKS5_, symObjAddr: 0x4460, symBinAddr: 0x1000049D0, symSize: 0x20 }
  - { offsetInCU: 0x160A8, offset: 0x160A8, size: 0x8, addend: 0x0, symName: __ZNKSt3__16vectorINS0_IbNS_9allocatorIbEEEENS1_IS3_EEE7__allocB7v160006Ev, symObjAddr: 0x4480, symBinAddr: 0x1000049F0, symSize: 0x20 }
  - { offsetInCU: 0x160CE, offset: 0x160CE, size: 0x8, addend: 0x0, symName: __ZNKSt3__19allocatorINS_6vectorIbNS0_IbEEEEE8max_sizeB7v160006Ev, symObjAddr: 0x44A0, symBinAddr: 0x100004A10, symSize: 0x20 }
  - { offsetInCU: 0x160F4, offset: 0x160F4, size: 0x8, addend: 0x0, symName: __ZNKSt3__117__compressed_pairIPNS_6vectorIbNS_9allocatorIbEEEENS2_IS4_EEE6secondB7v160006Ev, symObjAddr: 0x44C0, symBinAddr: 0x100004A30, symSize: 0x20 }
  - { offsetInCU: 0x1611A, offset: 0x1611A, size: 0x8, addend: 0x0, symName: __ZNKSt3__122__compressed_pair_elemINS_9allocatorINS_6vectorIbNS1_IbEEEEEELi1ELb1EE5__getB7v160006Ev, symObjAddr: 0x44E0, symBinAddr: 0x100004A50, symSize: 0x10 }
  - { offsetInCU: 0x16140, offset: 0x16140, size: 0x8, addend: 0x0, symName: __ZNSt3__19allocatorINS_6vectorIbNS0_IbEEEEE8allocateB7v160006Em, symObjAddr: 0x44F0, symBinAddr: 0x100004A60, symSize: 0x50 }
  - { offsetInCU: 0x16174, offset: 0x16174, size: 0x8, addend: 0x0, symName: __ZNSt3__117__compressed_pairIPNS_6vectorIbNS_9allocatorIbEEEENS2_IS4_EEE6secondB7v160006Ev, symObjAddr: 0x4540, symBinAddr: 0x100004AB0, symSize: 0x20 }
  - { offsetInCU: 0x1619A, offset: 0x1619A, size: 0x8, addend: 0x0, symName: __ZNSt3__122__compressed_pair_elemINS_9allocatorINS_6vectorIbNS1_IbEEEEEELi1ELb1EE5__getB7v160006Ev, symObjAddr: 0x4560, symBinAddr: 0x100004AD0, symSize: 0x10 }
  - { offsetInCU: 0x161C0, offset: 0x161C0, size: 0x8, addend: 0x0, symName: __ZNSt3__117__compressed_pairIPNS_6vectorIbNS_9allocatorIbEEEENS2_IS4_EEE5firstB7v160006Ev, symObjAddr: 0x4570, symBinAddr: 0x100004AE0, symSize: 0x20 }
  - { offsetInCU: 0x161E6, offset: 0x161E6, size: 0x8, addend: 0x0, symName: __ZNSt3__122__compressed_pair_elemIPNS_6vectorIbNS_9allocatorIbEEEELi0ELb0EE5__getB7v160006Ev, symObjAddr: 0x4590, symBinAddr: 0x100004B00, symSize: 0x10 }
  - { offsetInCU: 0x1620C, offset: 0x1620C, size: 0x8, addend: 0x0, symName: __ZNKSt3__16vectorINS0_IbNS_9allocatorIbEEEENS1_IS3_EEE31__annotate_contiguous_containerB7v160006EPKvS7_S7_S7_, symObjAddr: 0x45A0, symBinAddr: 0x100004B10, symSize: 0x20 }
  - { offsetInCU: 0x16262, offset: 0x16262, size: 0x8, addend: 0x0, symName: __ZNKSt3__16vectorINS0_IbNS_9allocatorIbEEEENS1_IS3_EEE4dataB7v160006Ev, symObjAddr: 0x45C0, symBinAddr: 0x100004B30, symSize: 0x20 }
  - { offsetInCU: 0x16288, offset: 0x16288, size: 0x8, addend: 0x0, symName: __ZNKSt3__16vectorINS0_IbNS_9allocatorIbEEEENS1_IS3_EEE8capacityB7v160006Ev, symObjAddr: 0x45E0, symBinAddr: 0x100004B50, symSize: 0x40 }
  - { offsetInCU: 0x162AE, offset: 0x162AE, size: 0x8, addend: 0x0, symName: __ZNKSt3__16vectorINS0_IbNS_9allocatorIbEEEENS1_IS3_EEE9__end_capB7v160006Ev, symObjAddr: 0x4630, symBinAddr: 0x100004BA0, symSize: 0x20 }
  - { offsetInCU: 0x162D4, offset: 0x162D4, size: 0x8, addend: 0x0, symName: __ZNKSt3__117__compressed_pairIPNS_6vectorIbNS_9allocatorIbEEEENS2_IS4_EEE5firstB7v160006Ev, symObjAddr: 0x4650, symBinAddr: 0x100004BC0, symSize: 0x20 }
  - { offsetInCU: 0x162FA, offset: 0x162FA, size: 0x8, addend: 0x0, symName: __ZNKSt3__122__compressed_pair_elemIPNS_6vectorIbNS_9allocatorIbEEEELi0ELb0EE5__getB7v160006Ev, symObjAddr: 0x4670, symBinAddr: 0x100004BE0, symSize: 0x10 }
  - { offsetInCU: 0x16339, offset: 0x16339, size: 0x8, addend: 0x0, symName: __ZNSt3__16vectorINS0_IbNS_9allocatorIbEEEENS1_IS3_EEE21_ConstructTransactionC1B7v160006ERS5_m, symObjAddr: 0x4680, symBinAddr: 0x100004BF0, symSize: 0x30 }
  - { offsetInCU: 0x16381, offset: 0x16381, size: 0x8, addend: 0x0, symName: __ZNSt3__116allocator_traitsINS_9allocatorINS_6vectorIbNS1_IbEEEEEEE9constructB7v160006IS4_JRKS4_EvEEvRS5_PT_DpOT0_, symObjAddr: 0x46B0, symBinAddr: 0x100004C20, symSize: 0x30 }
  - { offsetInCU: 0x163D8, offset: 0x163D8, size: 0x8, addend: 0x0, symName: __ZNSt3__16vectorINS0_IbNS_9allocatorIbEEEENS1_IS3_EEE21_ConstructTransactionD1B7v160006Ev, symObjAddr: 0x46E0, symBinAddr: 0x100004C50, symSize: 0x20 }
  - { offsetInCU: 0x16402, offset: 0x16402, size: 0x8, addend: 0x0, symName: __ZNSt3__16vectorINS0_IbNS_9allocatorIbEEEENS1_IS3_EEE21_ConstructTransactionC2B7v160006ERS5_m, symObjAddr: 0x4700, symBinAddr: 0x100004C70, symSize: 0x40 }
  - { offsetInCU: 0x1644A, offset: 0x1644A, size: 0x8, addend: 0x0, symName: __ZNSt3__19allocatorINS_6vectorIbNS0_IbEEEEE9constructB7v160006IS3_JRKS3_EEEvPT_DpOT0_, symObjAddr: 0x4740, symBinAddr: 0x100004CB0, symSize: 0x30 }
  - { offsetInCU: 0x164A0, offset: 0x164A0, size: 0x8, addend: 0x0, symName: __ZNSt3__16vectorIbNS_9allocatorIbEEEC1ERKS3_, symObjAddr: 0x4770, symBinAddr: 0x100004CE0, symSize: 0x30 }
  - { offsetInCU: 0x164DB, offset: 0x164DB, size: 0x8, addend: 0x0, symName: __ZNSt3__16vectorIbNS_9allocatorIbEEEC2ERKS3_, symObjAddr: 0x47A0, symBinAddr: 0x100004D10, symSize: 0xC0 }
  - { offsetInCU: 0x16516, offset: 0x16516, size: 0x8, addend: 0x0, symName: __ZNSt3__116allocator_traitsINS_9allocatorImEEE37select_on_container_copy_constructionB7v160006IS2_vvEES2_RKS2_, symObjAddr: 0x4860, symBinAddr: 0x100004DD0, symSize: 0x10 }
  - { offsetInCU: 0x1654A, offset: 0x1654A, size: 0x8, addend: 0x0, symName: __ZNSt3__117__compressed_pairImNS_9allocatorImEEEC1B7v160006IiS2_EEOT_OT0_, symObjAddr: 0x4870, symBinAddr: 0x100004DE0, symSize: 0x30 }
  - { offsetInCU: 0x165A2, offset: 0x165A2, size: 0x8, addend: 0x0, symName: __ZNKSt3__16vectorIbNS_9allocatorIbEEE4sizeB7v160006Ev, symObjAddr: 0x48A0, symBinAddr: 0x100004E10, symSize: 0x20 }
  - { offsetInCU: 0x165C8, offset: 0x165C8, size: 0x8, addend: 0x0, symName: __ZNSt3__16vectorIbNS_9allocatorIbEEE18__construct_at_endINS_14__bit_iteratorIS3_Lb1ELm0EEEEENS_9enable_ifIXsr27__is_cpp17_forward_iteratorIT_EE5valueEvE4typeES8_S8_, symObjAddr: 0x48C0, symBinAddr: 0x100004E30, symSize: 0x150 }
  - { offsetInCU: 0x16626, offset: 0x16626, size: 0x8, addend: 0x0, symName: __ZNKSt3__16vectorIbNS_9allocatorIbEEE5beginB7v160006Ev, symObjAddr: 0x4A10, symBinAddr: 0x100004F80, symSize: 0x30 }
  - { offsetInCU: 0x1664C, offset: 0x1664C, size: 0x8, addend: 0x0, symName: __ZNKSt3__16vectorIbNS_9allocatorIbEEE3endB7v160006Ev, symObjAddr: 0x4A40, symBinAddr: 0x100004FB0, symSize: 0x30 }
  - { offsetInCU: 0x16672, offset: 0x16672, size: 0x8, addend: 0x0, symName: __ZNSt3__117__compressed_pairImNS_9allocatorImEEEC2B7v160006IiS2_EEOT_OT0_, symObjAddr: 0x4A70, symBinAddr: 0x100004FE0, symSize: 0x40 }
  - { offsetInCU: 0x166CA, offset: 0x166CA, size: 0x8, addend: 0x0, symName: __ZNSt3__122__compressed_pair_elemINS_9allocatorImEELi1ELb1EEC2B7v160006IS2_vEEOT_, symObjAddr: 0x4AB0, symBinAddr: 0x100005020, symSize: 0x10 }
  - { offsetInCU: 0x16720, offset: 0x16720, size: 0x8, addend: 0x0, symName: __ZNKSt3__16__lessIllEclB7v160006ERKlS3_, symObjAddr: 0x5480, symBinAddr: 0x1000059F0, symSize: 0x30 }
  - { offsetInCU: 0x16785, offset: 0x16785, size: 0x8, addend: 0x0, symName: __ZNKSt3__114__copy_trivialclB7v160006IKmmLi0EEENS_4pairIPT_PT0_EES5_S5_S7_, symObjAddr: 0x5670, symBinAddr: 0x100005BE0, symSize: 0x40 }
  - { offsetInCU: 0x1680B, offset: 0x1680B, size: 0x8, addend: 0x0, symName: __ZNSt3__14pairIPKmS2_EC1B7v160006IS2_S2_LPv0EEEOT_OT0_, symObjAddr: 0x57C0, symBinAddr: 0x100005D30, symSize: 0x30 }
  - { offsetInCU: 0x16869, offset: 0x16869, size: 0x8, addend: 0x0, symName: __ZNSt3__14pairIPKmS2_EC2B7v160006IS2_S2_LPv0EEEOT_OT0_, symObjAddr: 0x57F0, symBinAddr: 0x100005D60, symSize: 0x30 }
  - { offsetInCU: 0x168C7, offset: 0x168C7, size: 0x8, addend: 0x0, symName: __ZNSt3__118__unwrap_iter_implIPKmLb1EE8__unwrapB7v160006ES2_, symObjAddr: 0x5820, symBinAddr: 0x100005D90, symSize: 0x20 }
  - { offsetInCU: 0x168F4, offset: 0x168F4, size: 0x8, addend: 0x0, symName: __ZNSt3__14pairIPKmPmEC1B7v160006IRS2_S3_LPv0EEEOT_OT0_, symObjAddr: 0x58E0, symBinAddr: 0x100005E50, symSize: 0x30 }
  - { offsetInCU: 0x16952, offset: 0x16952, size: 0x8, addend: 0x0, symName: __ZNSt3__14pairIPKmPmEC2B7v160006IRS2_S3_LPv0EEEOT_OT0_, symObjAddr: 0x5910, symBinAddr: 0x100005E80, symSize: 0x30 }
  - { offsetInCU: 0x169B0, offset: 0x169B0, size: 0x8, addend: 0x0, symName: __ZNSt3__118__unwrap_iter_implIPmLb1EE8__unwrapB7v160006ES1_, symObjAddr: 0x5940, symBinAddr: 0x100005EB0, symSize: 0x20 }
  - { offsetInCU: 0x169D3, offset: 0x169D3, size: 0x8, addend: 0x0, symName: __ZNSt3__14pairIPKmPmEC1B7v160006IS2_S3_LPv0EEEOT_OT0_, symObjAddr: 0x5960, symBinAddr: 0x100005ED0, symSize: 0x30 }
  - { offsetInCU: 0x16A31, offset: 0x16A31, size: 0x8, addend: 0x0, symName: __ZNSt3__14pairIPKmPmEC2B7v160006IS2_S3_LPv0EEEOT_OT0_, symObjAddr: 0x5990, symBinAddr: 0x100005F00, symSize: 0x30 }
  - { offsetInCU: 0x16A8F, offset: 0x16A8F, size: 0x8, addend: 0x0, symName: __ZNSt3__118__unwrap_iter_implIPKmLb1EE8__rewrapB7v160006ES2_S2_, symObjAddr: 0x5A00, symBinAddr: 0x100005F70, symSize: 0x50 }
  - { offsetInCU: 0x16AC0, offset: 0x16AC0, size: 0x8, addend: 0x0, symName: __ZNSt3__118__unwrap_iter_implIPmLb1EE8__rewrapB7v160006ES1_S1_, symObjAddr: 0x5A50, symBinAddr: 0x100005FC0, symSize: 0x50 }
  - { offsetInCU: 0x16AF1, offset: 0x16AF1, size: 0x8, addend: 0x0, symName: __ZNKSt3__16vectorIbNS_9allocatorIbEEE11__make_iterB7v160006Em, symObjAddr: 0x5AA0, symBinAddr: 0x100006010, symSize: 0x50 }
  - { offsetInCU: 0x16B26, offset: 0x16B26, size: 0x8, addend: 0x0, symName: __ZNSt3__114__bit_iteratorINS_6vectorIbNS_9allocatorIbEEEELb1ELm0EEC1B7v160006EPKmj, symObjAddr: 0x5AF0, symBinAddr: 0x100006060, symSize: 0x30 }
  - { offsetInCU: 0x16B6E, offset: 0x16B6E, size: 0x8, addend: 0x0, symName: __ZNSt3__114__bit_iteratorINS_6vectorIbNS_9allocatorIbEEEELb1ELm0EEC2B7v160006EPKmj, symObjAddr: 0x5B20, symBinAddr: 0x100006090, symSize: 0x30 }
  - { offsetInCU: 0x16BB6, offset: 0x16BB6, size: 0x8, addend: 0x0, symName: __ZNSt3__16vectorINS0_IbNS_9allocatorIbEEEENS1_IS3_EEE21_ConstructTransactionD2B7v160006Ev, symObjAddr: 0x5B50, symBinAddr: 0x1000060C0, symSize: 0x20 }
  - { offsetInCU: 0x16BE0, offset: 0x16BE0, size: 0x8, addend: 0x0, symName: __ZNSt3__128__exception_guard_exceptionsINS_6vectorINS1_IbNS_9allocatorIbEEEENS2_IS4_EEE16__destroy_vectorEED2B7v160006Ev, symObjAddr: 0x5B70, symBinAddr: 0x1000060E0, symSize: 0x40 }
  - { offsetInCU: 0x16C0A, offset: 0x16C0A, size: 0x8, addend: 0x0, symName: __ZNSt3__16vectorINS0_IbNS_9allocatorIbEEEENS1_IS3_EEE16__destroy_vectorclB7v160006Ev, symObjAddr: 0x5BB0, symBinAddr: 0x100006120, symSize: 0x90 }
  - { offsetInCU: 0x16C30, offset: 0x16C30, size: 0x8, addend: 0x0, symName: __ZNKSt3__16vectorINS0_IbNS_9allocatorIbEEEENS1_IS3_EEE17__annotate_deleteB7v160006Ev, symObjAddr: 0x5C40, symBinAddr: 0x1000061B0, symSize: 0xB0 }
  - { offsetInCU: 0x16C56, offset: 0x16C56, size: 0x8, addend: 0x0, symName: __ZNSt3__16vectorINS0_IbNS_9allocatorIbEEEENS1_IS3_EEE7__clearB7v160006Ev, symObjAddr: 0x5D00, symBinAddr: 0x100006270, symSize: 0x20 }
  - { offsetInCU: 0x16C7C, offset: 0x16C7C, size: 0x8, addend: 0x0, symName: __ZNSt3__116allocator_traitsINS_9allocatorINS_6vectorIbNS1_IbEEEEEEE10deallocateB7v160006ERS5_PS4_m, symObjAddr: 0x5D20, symBinAddr: 0x100006290, symSize: 0x30 }
  - { offsetInCU: 0x16CBE, offset: 0x16CBE, size: 0x8, addend: 0x0, symName: __ZNKSt3__16vectorINS0_IbNS_9allocatorIbEEEENS1_IS3_EEE4sizeB7v160006Ev, symObjAddr: 0x5D50, symBinAddr: 0x1000062C0, symSize: 0x30 }
  - { offsetInCU: 0x16CE4, offset: 0x16CE4, size: 0x8, addend: 0x0, symName: __ZNSt3__16vectorINS0_IbNS_9allocatorIbEEEENS1_IS3_EEE22__base_destruct_at_endB7v160006EPS3_, symObjAddr: 0x5D80, symBinAddr: 0x1000062F0, symSize: 0x80 }
  - { offsetInCU: 0x16D28, offset: 0x16D28, size: 0x8, addend: 0x0, symName: __ZNSt3__116allocator_traitsINS_9allocatorINS_6vectorIbNS1_IbEEEEEEE7destroyB7v160006IS4_vEEvRS5_PT_, symObjAddr: 0x5E00, symBinAddr: 0x100006370, symSize: 0x30 }
  - { offsetInCU: 0x16D65, offset: 0x16D65, size: 0x8, addend: 0x0, symName: __ZNSt3__19allocatorINS_6vectorIbNS0_IbEEEEE7destroyB7v160006EPS3_, symObjAddr: 0x5E30, symBinAddr: 0x1000063A0, symSize: 0x20 }
  - { offsetInCU: 0x16D99, offset: 0x16D99, size: 0x8, addend: 0x0, symName: __ZNSt3__19allocatorINS_6vectorIbNS0_IbEEEEE10deallocateB7v160006EPS3_m, symObjAddr: 0x5E50, symBinAddr: 0x1000063C0, symSize: 0x50 }
  - { offsetInCU: 0x16DDB, offset: 0x16DDB, size: 0x8, addend: 0x0, symName: __ZNSt3__16vectorIbNS_9allocatorIbEEED2B7v160006Ev, symObjAddr: 0x5EA0, symBinAddr: 0x100006410, symSize: 0x40 }
  - { offsetInCU: 0x16E05, offset: 0x16E05, size: 0x8, addend: 0x0, symName: __ZNSt3__16vectorIbNS_9allocatorIbEEE16__destroy_vectorC1ERS3_, symObjAddr: 0x5EE0, symBinAddr: 0x100006450, symSize: 0x30 }
  - { offsetInCU: 0x16E3E, offset: 0x16E3E, size: 0x8, addend: 0x0, symName: __ZNSt3__16vectorIbNS_9allocatorIbEEE16__destroy_vectorclB7v160006Ev, symObjAddr: 0x5F10, symBinAddr: 0x100006480, symSize: 0x70 }
  - { offsetInCU: 0x16E64, offset: 0x16E64, size: 0x8, addend: 0x0, symName: __ZNSt3__16vectorIbNS_9allocatorIbEEE16__destroy_vectorC2ERS3_, symObjAddr: 0x5F80, symBinAddr: 0x1000064F0, symSize: 0x20 }
  - { offsetInCU: 0x16E9D, offset: 0x16E9D, size: 0x8, addend: 0x0, symName: __ZNSt3__116allocator_traitsINS_9allocatorImEEE10deallocateB7v160006ERS2_Pmm, symObjAddr: 0x5FA0, symBinAddr: 0x100006510, symSize: 0x30 }
  - { offsetInCU: 0x16EDF, offset: 0x16EDF, size: 0x8, addend: 0x0, symName: __ZNSt3__19allocatorImE10deallocateB7v160006EPmm, symObjAddr: 0x5FE0, symBinAddr: 0x100006550, symSize: 0x40 }
  - { offsetInCU: 0x16F21, offset: 0x16F21, size: 0x8, addend: 0x0, symName: __ZNSt3__16vectorINS0_IbNS_9allocatorIbEEEENS1_IS3_EEED2B7v160006Ev, symObjAddr: 0x6020, symBinAddr: 0x100006590, symSize: 0x40 }
  - { offsetInCU: 0x16F4B, offset: 0x16F4B, size: 0x8, addend: 0x0, symName: __ZNSt3__16vectorINS0_I4CellNS_9allocatorIS1_EEEENS2_IS4_EEED2B7v160006Ev, symObjAddr: 0x6060, symBinAddr: 0x1000065D0, symSize: 0x40 }
  - { offsetInCU: 0x16F8E, offset: 0x16F8E, size: 0x8, addend: 0x0, symName: __ZNSt3__113random_deviceC1Ev, symObjAddr: 0x60A0, symBinAddr: 0x100006610, symSize: 0x70 }
  - { offsetInCU: 0x16FB8, offset: 0x16FB8, size: 0x8, addend: 0x0, symName: __ZNSt3__123mersenne_twister_engineIjLm32ELm624ELm397ELm31ELj2567483615ELm11ELj4294967295ELm7ELj2636928640ELm15ELj4022730752ELm18ELj1812433253EEC1B7v160006Ej, symObjAddr: 0x6110, symBinAddr: 0x100006680, symSize: 0x30 }
  - { offsetInCU: 0x16FF0, offset: 0x16FF0, size: 0x8, addend: 0x0, symName: __ZNSt3__124uniform_int_distributionIiEC1Eii, symObjAddr: 0x6140, symBinAddr: 0x1000066B0, symSize: 0x30 }
  - { offsetInCU: 0x17072, offset: 0x17072, size: 0x8, addend: 0x0, symName: __ZNSt3__15stackIP4CellNS_5dequeIS2_NS_9allocatorIS2_EEEEEC1B7v160006Ev, symObjAddr: 0x6170, symBinAddr: 0x1000066E0, symSize: 0x20 }
  - { offsetInCU: 0x1709C, offset: 0x1709C, size: 0x8, addend: 0x0, symName: __ZNSt3__15stackIP4CellNS_5dequeIS2_NS_9allocatorIS2_EEEEE4pushB7v160006ERKS2_, symObjAddr: 0x6190, symBinAddr: 0x100006700, symSize: 0x30 }
  - { offsetInCU: 0x170D0, offset: 0x170D0, size: 0x8, addend: 0x0, symName: __ZNKSt3__15stackIP4CellNS_5dequeIS2_NS_9allocatorIS2_EEEEE5emptyB7v160006Ev, symObjAddr: 0x61C0, symBinAddr: 0x100006730, symSize: 0x20 }
  - { offsetInCU: 0x170F6, offset: 0x170F6, size: 0x8, addend: 0x0, symName: __ZN4Maze11getNextCellEP4Celli, symObjAddr: 0x61E0, symBinAddr: 0x100006750, symSize: 0x230 }
  - { offsetInCU: 0x17154, offset: 0x17154, size: 0x8, addend: 0x0, symName: __ZNSt3__124uniform_int_distributionIiEclINS_23mersenne_twister_engineIjLm32ELm624ELm397ELm31ELj2567483615ELm11ELj4294967295ELm7ELj2636928640ELm15ELj4022730752ELm18ELj1812433253EEEEEiRT_, symObjAddr: 0x6410, symBinAddr: 0x100006980, symSize: 0x30 }
  - { offsetInCU: 0x17191, offset: 0x17191, size: 0x8, addend: 0x0, symName: __ZN4Maze10removeWallEP4CellS1_, symObjAddr: 0x6440, symBinAddr: 0x1000069B0, symSize: 0xB0 }
  - { offsetInCU: 0x171EF, offset: 0x171EF, size: 0x8, addend: 0x0, symName: __ZNSt3__15stackIP4CellNS_5dequeIS2_NS_9allocatorIS2_EEEEE3topB7v160006Ev, symObjAddr: 0x64F0, symBinAddr: 0x100006A60, symSize: 0x20 }
  - { offsetInCU: 0x17215, offset: 0x17215, size: 0x8, addend: 0x0, symName: __ZNSt3__15stackIP4CellNS_5dequeIS2_NS_9allocatorIS2_EEEEE3popB7v160006Ev, symObjAddr: 0x6510, symBinAddr: 0x100006A80, symSize: 0x20 }
  - { offsetInCU: 0x1723B, offset: 0x1723B, size: 0x8, addend: 0x0, symName: __ZNSt3__15stackIP4CellNS_5dequeIS2_NS_9allocatorIS2_EEEEED1Ev, symObjAddr: 0x6530, symBinAddr: 0x100006AA0, symSize: 0x20 }
  - { offsetInCU: 0x17267, offset: 0x17267, size: 0x8, addend: 0x0, symName: __ZNSt3__123mersenne_twister_engineIjLm32ELm624ELm397ELm31ELj2567483615ELm11ELj4294967295ELm7ELj2636928640ELm15ELj4022730752ELm18ELj1812433253EEC2B7v160006Ej, symObjAddr: 0x6550, symBinAddr: 0x100006AC0, symSize: 0x30 }
  - { offsetInCU: 0x1729F, offset: 0x1729F, size: 0x8, addend: 0x0, symName: __ZNSt3__123mersenne_twister_engineIjLm32ELm624ELm397ELm31ELj2567483615ELm11ELj4294967295ELm7ELj2636928640ELm15ELj4022730752ELm18ELj1812433253EE4seedEj, symObjAddr: 0x6580, symBinAddr: 0x100006AF0, symSize: 0xB0 }
  - { offsetInCU: 0x172F2, offset: 0x172F2, size: 0x8, addend: 0x0, symName: __ZNSt3__123mersenne_twister_engineIjLm32ELm624ELm397ELm31ELj2567483615ELm11ELj4294967295ELm7ELj2636928640ELm15ELj4022730752ELm18ELj1812433253EE8__rshiftB7v160006ILm30EEENS_9enable_ifIXltT_L_ZNS1_3_DtEEEjE4typeEj, symObjAddr: 0x6630, symBinAddr: 0x100006BA0, symSize: 0x10 }
  - { offsetInCU: 0x1731F, offset: 0x1731F, size: 0x8, addend: 0x0, symName: __ZNSt3__124uniform_int_distributionIiEC2Eii, symObjAddr: 0x6640, symBinAddr: 0x100006BB0, symSize: 0x30 }
  - { offsetInCU: 0x17365, offset: 0x17365, size: 0x8, addend: 0x0, symName: __ZNSt3__124uniform_int_distributionIiE10param_typeC1Eii, symObjAddr: 0x6670, symBinAddr: 0x100006BE0, symSize: 0x30 }
  - { offsetInCU: 0x173AB, offset: 0x173AB, size: 0x8, addend: 0x0, symName: __ZNSt3__124uniform_int_distributionIiE10param_typeC2Eii, symObjAddr: 0x66A0, symBinAddr: 0x100006C10, symSize: 0x20 }
  - { offsetInCU: 0x173F1, offset: 0x173F1, size: 0x8, addend: 0x0, symName: __ZNSt3__15stackIP4CellNS_5dequeIS2_NS_9allocatorIS2_EEEEEC2B7v160006Ev, symObjAddr: 0x66C0, symBinAddr: 0x100006C30, symSize: 0x20 }
  - { offsetInCU: 0x1741B, offset: 0x1741B, size: 0x8, addend: 0x0, symName: __ZNSt3__15dequeIP4CellNS_9allocatorIS2_EEEC1B7v160006Ev, symObjAddr: 0x66E0, symBinAddr: 0x100006C50, symSize: 0x20 }
  - { offsetInCU: 0x17445, offset: 0x17445, size: 0x8, addend: 0x0, symName: __ZNSt3__15dequeIP4CellNS_9allocatorIS2_EEEC2B7v160006Ev, symObjAddr: 0x6700, symBinAddr: 0x100006C70, symSize: 0x50 }
  - { offsetInCU: 0x1746F, offset: 0x1746F, size: 0x8, addend: 0x0, symName: __ZNSt3__114__split_bufferIPP4CellNS_9allocatorIS3_EEEC1Ev, symObjAddr: 0x6750, symBinAddr: 0x100006CC0, symSize: 0x20 }
  - { offsetInCU: 0x1749B, offset: 0x1749B, size: 0x8, addend: 0x0, symName: __ZNSt3__117__compressed_pairImNS_9allocatorIP4CellEEEC1B7v160006IiNS_18__default_init_tagEEEOT_OT0_, symObjAddr: 0x6770, symBinAddr: 0x100006CE0, symSize: 0x30 }
  - { offsetInCU: 0x174F3, offset: 0x174F3, size: 0x8, addend: 0x0, symName: __ZNSt3__114__split_bufferIPP4CellNS_9allocatorIS3_EEEC2Ev, symObjAddr: 0x67A0, symBinAddr: 0x100006D10, symSize: 0x60 }
  - { offsetInCU: 0x1751F, offset: 0x1751F, size: 0x8, addend: 0x0, symName: __ZNSt3__117__compressed_pairIPPP4CellNS_9allocatorIS3_EEEC1B7v160006IDnNS_18__default_init_tagEEEOT_OT0_, symObjAddr: 0x6800, symBinAddr: 0x100006D70, symSize: 0x30 }
  - { offsetInCU: 0x17577, offset: 0x17577, size: 0x8, addend: 0x0, symName: __ZNSt3__117__compressed_pairIPPP4CellNS_9allocatorIS3_EEEC2B7v160006IDnNS_18__default_init_tagEEEOT_OT0_, symObjAddr: 0x6830, symBinAddr: 0x100006DA0, symSize: 0x40 }
  - { offsetInCU: 0x175CF, offset: 0x175CF, size: 0x8, addend: 0x0, symName: __ZNSt3__122__compressed_pair_elemIPPP4CellLi0ELb0EEC2B7v160006IDnvEEOT_, symObjAddr: 0x6870, symBinAddr: 0x100006DE0, symSize: 0x20 }
  - { offsetInCU: 0x17611, offset: 0x17611, size: 0x8, addend: 0x0, symName: __ZNSt3__122__compressed_pair_elemINS_9allocatorIPP4CellEELi1ELb1EEC2B7v160006ENS_18__default_init_tagE, symObjAddr: 0x6890, symBinAddr: 0x100006E00, symSize: 0x20 }
  - { offsetInCU: 0x17645, offset: 0x17645, size: 0x8, addend: 0x0, symName: __ZNSt3__19allocatorIPP4CellEC2B7v160006Ev, symObjAddr: 0x68B0, symBinAddr: 0x100006E20, symSize: 0x20 }
  - { offsetInCU: 0x1766F, offset: 0x1766F, size: 0x8, addend: 0x0, symName: __ZNSt3__116__non_trivial_ifILb1ENS_9allocatorIPP4CellEEEC2B7v160006Ev, symObjAddr: 0x68D0, symBinAddr: 0x100006E40, symSize: 0x10 }
  - { offsetInCU: 0x17699, offset: 0x17699, size: 0x8, addend: 0x0, symName: __ZNSt3__117__compressed_pairImNS_9allocatorIP4CellEEEC2B7v160006IiNS_18__default_init_tagEEEOT_OT0_, symObjAddr: 0x68E0, symBinAddr: 0x100006E50, symSize: 0x40 }
  - { offsetInCU: 0x176F1, offset: 0x176F1, size: 0x8, addend: 0x0, symName: __ZNSt3__122__compressed_pair_elemINS_9allocatorIP4CellEELi1ELb1EEC2B7v160006ENS_18__default_init_tagE, symObjAddr: 0x6920, symBinAddr: 0x100006E90, symSize: 0x20 }
  - { offsetInCU: 0x17725, offset: 0x17725, size: 0x8, addend: 0x0, symName: __ZNSt3__19allocatorIP4CellEC2B7v160006Ev, symObjAddr: 0x6940, symBinAddr: 0x100006EB0, symSize: 0x20 }
  - { offsetInCU: 0x1774F, offset: 0x1774F, size: 0x8, addend: 0x0, symName: __ZNSt3__116__non_trivial_ifILb1ENS_9allocatorIP4CellEEEC2B7v160006Ev, symObjAddr: 0x6960, symBinAddr: 0x100006ED0, symSize: 0x10 }
  - { offsetInCU: 0x17779, offset: 0x17779, size: 0x8, addend: 0x0, symName: __ZNSt3__15dequeIP4CellNS_9allocatorIS2_EEE9push_backERKS2_, symObjAddr: 0x6970, symBinAddr: 0x100006EE0, symSize: 0x90 }
  - { offsetInCU: 0x177BF, offset: 0x177BF, size: 0x8, addend: 0x0, symName: __ZNSt3__15dequeIP4CellNS_9allocatorIS2_EEE7__allocB7v160006Ev, symObjAddr: 0x6A00, symBinAddr: 0x100006F70, symSize: 0x20 }
  - { offsetInCU: 0x177E5, offset: 0x177E5, size: 0x8, addend: 0x0, symName: __ZNKSt3__15dequeIP4CellNS_9allocatorIS2_EEE12__back_spareB7v160006Ev, symObjAddr: 0x6A20, symBinAddr: 0x100006F90, symSize: 0x50 }
  - { offsetInCU: 0x1780B, offset: 0x1780B, size: 0x8, addend: 0x0, symName: __ZNSt3__15dequeIP4CellNS_9allocatorIS2_EEE19__add_back_capacityEv, symObjAddr: 0x6A70, symBinAddr: 0x100006FE0, symSize: 0x380 }
  - { offsetInCU: 0x178C0, offset: 0x178C0, size: 0x8, addend: 0x0, symName: __ZNSt3__116allocator_traitsINS_9allocatorIP4CellEEE9constructB7v160006IS3_JRKS3_EvEEvRS4_PT_DpOT0_, symObjAddr: 0x6DF0, symBinAddr: 0x100007360, symSize: 0x30 }
  - { offsetInCU: 0x17917, offset: 0x17917, size: 0x8, addend: 0x0, symName: __ZNSt3__15dequeIP4CellNS_9allocatorIS2_EEE3endB7v160006Ev, symObjAddr: 0x6E20, symBinAddr: 0x100007390, symSize: 0xC0 }
  - { offsetInCU: 0x1795B, offset: 0x1795B, size: 0x8, addend: 0x0, symName: __ZNKSt3__116__deque_iteratorIP4CellPS2_RS2_PS3_lLl512EEdeB7v160006Ev, symObjAddr: 0x6EE0, symBinAddr: 0x100007450, symSize: 0x20 }
  - { offsetInCU: 0x17981, offset: 0x17981, size: 0x8, addend: 0x0, symName: __ZNSt3__15dequeIP4CellNS_9allocatorIS2_EEE6__sizeB7v160006Ev, symObjAddr: 0x6F00, symBinAddr: 0x100007470, symSize: 0x20 }
  - { offsetInCU: 0x179A7, offset: 0x179A7, size: 0x8, addend: 0x0, symName: __ZNSt3__117__compressed_pairImNS_9allocatorIP4CellEEE6secondB7v160006Ev, symObjAddr: 0x6F20, symBinAddr: 0x100007490, symSize: 0x20 }
  - { offsetInCU: 0x179CD, offset: 0x179CD, size: 0x8, addend: 0x0, symName: __ZNSt3__122__compressed_pair_elemINS_9allocatorIP4CellEELi1ELb1EE5__getB7v160006Ev, symObjAddr: 0x6F40, symBinAddr: 0x1000074B0, symSize: 0x10 }
  - { offsetInCU: 0x179F3, offset: 0x179F3, size: 0x8, addend: 0x0, symName: __ZNKSt3__15dequeIP4CellNS_9allocatorIS2_EEE10__capacityB7v160006Ev, symObjAddr: 0x6F50, symBinAddr: 0x1000074C0, symSize: 0x50 }
  - { offsetInCU: 0x17A19, offset: 0x17A19, size: 0x8, addend: 0x0, symName: __ZNKSt3__15dequeIP4CellNS_9allocatorIS2_EEE4sizeB7v160006Ev, symObjAddr: 0x6FA0, symBinAddr: 0x100007510, symSize: 0x20 }
  - { offsetInCU: 0x17A3F, offset: 0x17A3F, size: 0x8, addend: 0x0, symName: __ZNKSt3__114__split_bufferIPP4CellNS_9allocatorIS3_EEE4sizeB7v160006Ev, symObjAddr: 0x6FC0, symBinAddr: 0x100007530, symSize: 0x20 }
  - { offsetInCU: 0x17A65, offset: 0x17A65, size: 0x8, addend: 0x0, symName: __ZNKSt3__15dequeIP4CellNS_9allocatorIS2_EEE6__sizeB7v160006Ev, symObjAddr: 0x6FE0, symBinAddr: 0x100007550, symSize: 0x20 }
  - { offsetInCU: 0x17A8B, offset: 0x17A8B, size: 0x8, addend: 0x0, symName: __ZNKSt3__117__compressed_pairImNS_9allocatorIP4CellEEE5firstB7v160006Ev, symObjAddr: 0x7000, symBinAddr: 0x100007570, symSize: 0x20 }
  - { offsetInCU: 0x17AB1, offset: 0x17AB1, size: 0x8, addend: 0x0, symName: __ZNKSt3__122__compressed_pair_elemImLi0ELb0EE5__getB7v160006Ev, symObjAddr: 0x7020, symBinAddr: 0x100007590, symSize: 0x10 }
  - { offsetInCU: 0x17AD7, offset: 0x17AD7, size: 0x8, addend: 0x0, symName: __ZNKSt3__15dequeIP4CellNS_9allocatorIS2_EEE13__front_spareB7v160006Ev, symObjAddr: 0x7030, symBinAddr: 0x1000075A0, symSize: 0x20 }
  - { offsetInCU: 0x17AFD, offset: 0x17AFD, size: 0x8, addend: 0x0, symName: __ZNSt3__114__split_bufferIPP4CellNS_9allocatorIS3_EEE5frontB7v160006Ev, symObjAddr: 0x7050, symBinAddr: 0x1000075C0, symSize: 0x20 }
  - { offsetInCU: 0x17B23, offset: 0x17B23, size: 0x8, addend: 0x0, symName: __ZNSt3__114__split_bufferIPP4CellNS_9allocatorIS3_EEE9pop_frontB7v160006Ev, symObjAddr: 0x7070, symBinAddr: 0x1000075E0, symSize: 0x30 }
  - { offsetInCU: 0x17B49, offset: 0x17B49, size: 0x8, addend: 0x0, symName: __ZNSt3__114__split_bufferIPP4CellNS_9allocatorIS3_EEE9push_backB7v160006ERKS3_, symObjAddr: 0x70A0, symBinAddr: 0x100007610, symSize: 0x290 }
  - { offsetInCU: 0x17BC1, offset: 0x17BC1, size: 0x8, addend: 0x0, symName: __ZNKSt3__114__split_bufferIPP4CellNS_9allocatorIS3_EEE8capacityB7v160006Ev, symObjAddr: 0x7330, symBinAddr: 0x1000078A0, symSize: 0x30 }
  - { offsetInCU: 0x17BE7, offset: 0x17BE7, size: 0x8, addend: 0x0, symName: __ZNKSt3__114__split_bufferIPP4CellNS_9allocatorIS3_EEE12__back_spareB7v160006Ev, symObjAddr: 0x7360, symBinAddr: 0x1000078D0, symSize: 0x40 }
  - { offsetInCU: 0x17C0D, offset: 0x17C0D, size: 0x8, addend: 0x0, symName: __ZNSt3__114__split_bufferIPP4CellNS_9allocatorIS3_EEE9push_backEOS3_, symObjAddr: 0x73A0, symBinAddr: 0x100007910, symSize: 0x290 }
  - { offsetInCU: 0x17C85, offset: 0x17C85, size: 0x8, addend: 0x0, symName: __ZNSt3__116allocator_traitsINS_9allocatorIP4CellEEE8allocateB7v160006ERS4_m, symObjAddr: 0x7630, symBinAddr: 0x100007BA0, symSize: 0x30 }
  - { offsetInCU: 0x17CB8, offset: 0x17CB8, size: 0x8, addend: 0x0, symName: __ZNSt3__114__split_bufferIPP4CellNS_9allocatorIS3_EEE10push_frontEOS3_, symObjAddr: 0x7660, symBinAddr: 0x100007BD0, symSize: 0x270 }
  - { offsetInCU: 0x17D30, offset: 0x17D30, size: 0x8, addend: 0x0, symName: __ZNSt3__114__split_bufferIPP4CellNS_9allocatorIS3_EEE7__allocB7v160006Ev, symObjAddr: 0x7900, symBinAddr: 0x100007E70, symSize: 0x20 }
  - { offsetInCU: 0x17D56, offset: 0x17D56, size: 0x8, addend: 0x0, symName: __ZNSt3__114__split_bufferIPP4CellRNS_9allocatorIS3_EEEC1EmmS6_, symObjAddr: 0x7920, symBinAddr: 0x100007E90, symSize: 0x40 }
  - { offsetInCU: 0x17DB1, offset: 0x17DB1, size: 0x8, addend: 0x0, symName: __ZNSt3__122__allocator_destructorINS_9allocatorIP4CellEEEC1B7v160006ERS4_m, symObjAddr: 0x7960, symBinAddr: 0x100007ED0, symSize: 0x30 }
  - { offsetInCU: 0x17E74, offset: 0x17E74, size: 0x8, addend: 0x0, symName: __ZNSt3__110unique_ptrIPP4CellNS_22__allocator_destructorINS_9allocatorIS2_EEEEEC1B7v160006ILb1EvEES3_NS_16__dependent_typeINS_27__unique_ptr_deleter_sfinaeIS7_EEXT_EE20__good_rval_ref_typeE, symObjAddr: 0x7990, symBinAddr: 0x100007F00, symSize: 0x30 }
  - { offsetInCU: 0x17EC5, offset: 0x17EC5, size: 0x8, addend: 0x0, symName: __ZNSt3__114__split_bufferIPP4CellRNS_9allocatorIS3_EEE9push_backEOS3_, symObjAddr: 0x79C0, symBinAddr: 0x100007F30, symSize: 0x290 }
  - { offsetInCU: 0x17F3D, offset: 0x17F3D, size: 0x8, addend: 0x0, symName: __ZNKSt3__110unique_ptrIPP4CellNS_22__allocator_destructorINS_9allocatorIS2_EEEEE3getB7v160006Ev, symObjAddr: 0x7C50, symBinAddr: 0x1000081C0, symSize: 0x20 }
  - { offsetInCU: 0x17F63, offset: 0x17F63, size: 0x8, addend: 0x0, symName: __ZNSt3__110unique_ptrIPP4CellNS_22__allocator_destructorINS_9allocatorIS2_EEEEE7releaseB7v160006Ev, symObjAddr: 0x7C70, symBinAddr: 0x1000081E0, symSize: 0x40 }
  - { offsetInCU: 0x17F98, offset: 0x17F98, size: 0x8, addend: 0x0, symName: __ZNSt3__114__split_bufferIPP4CellNS_9allocatorIS3_EEE3endB7v160006Ev, symObjAddr: 0x7CB0, symBinAddr: 0x100008220, symSize: 0x20 }
  - { offsetInCU: 0x17FBE, offset: 0x17FBE, size: 0x8, addend: 0x0, symName: __ZNSt3__114__split_bufferIPP4CellNS_9allocatorIS3_EEE5beginB7v160006Ev, symObjAddr: 0x7CD0, symBinAddr: 0x100008240, symSize: 0x20 }
  - { offsetInCU: 0x17FE4, offset: 0x17FE4, size: 0x8, addend: 0x0, symName: __ZNSt3__114__split_bufferIPP4CellRNS_9allocatorIS3_EEE10push_frontERKS3_, symObjAddr: 0x7CF0, symBinAddr: 0x100008260, symSize: 0x270 }
  - { offsetInCU: 0x1805C, offset: 0x1805C, size: 0x8, addend: 0x0, symName: __ZNSt3__114__split_bufferIPP4CellNS_9allocatorIS3_EEE9__end_capB7v160006Ev, symObjAddr: 0x7FA0, symBinAddr: 0x100008510, symSize: 0x20 }
  - { offsetInCU: 0x18082, offset: 0x18082, size: 0x8, addend: 0x0, symName: __ZNSt3__114__split_bufferIPP4CellRNS_9allocatorIS3_EEE9__end_capB7v160006Ev, symObjAddr: 0x7FC0, symBinAddr: 0x100008530, symSize: 0x20 }
  - { offsetInCU: 0x180A8, offset: 0x180A8, size: 0x8, addend: 0x0, symName: __ZNSt3__110unique_ptrIPP4CellNS_22__allocator_destructorINS_9allocatorIS2_EEEEED1B7v160006Ev, symObjAddr: 0x7FE0, symBinAddr: 0x100008550, symSize: 0x20 }
  - { offsetInCU: 0x180D2, offset: 0x180D2, size: 0x8, addend: 0x0, symName: __ZNSt3__114__split_bufferIPP4CellRNS_9allocatorIS3_EEED1Ev, symObjAddr: 0x8000, symBinAddr: 0x100008570, symSize: 0x20 }
  - { offsetInCU: 0x180FE, offset: 0x180FE, size: 0x8, addend: 0x0, symName: __ZNSt3__114__split_bufferIPP4CellNS_9allocatorIS3_EEE19__destruct_at_beginB7v160006EPS3_, symObjAddr: 0x8020, symBinAddr: 0x100008590, symSize: 0x30 }
  - { offsetInCU: 0x18132, offset: 0x18132, size: 0x8, addend: 0x0, symName: __ZNSt3__114__split_bufferIPP4CellNS_9allocatorIS3_EEE19__destruct_at_beginEPS3_NS_17integral_constantIbLb1EEE, symObjAddr: 0x8050, symBinAddr: 0x1000085C0, symSize: 0x20 }
  - { offsetInCU: 0x18172, offset: 0x18172, size: 0x8, addend: 0x0, symName: __ZNSt3__114__split_bufferIPP4CellRNS_9allocatorIS3_EEE18__construct_at_endINS_13move_iteratorIPS3_EEEENS_9enable_ifIXsr27__is_cpp17_forward_iteratorIT_EE5valueEvE4typeESD_SD_, symObjAddr: 0x80B0, symBinAddr: 0x100008620, symSize: 0x100 }
  - { offsetInCU: 0x181CE, offset: 0x181CE, size: 0x8, addend: 0x0, symName: __ZNSt3__113move_iteratorIPPP4CellEC1B7v160006ES4_, symObjAddr: 0x81B0, symBinAddr: 0x100008720, symSize: 0x30 }
  - { offsetInCU: 0x18206, offset: 0x18206, size: 0x8, addend: 0x0, symName: __ZNSt3__116allocator_traitsINS_9allocatorIPP4CellEEE9constructB7v160006IS4_JRKS4_EvEEvRS5_PT_DpOT0_, symObjAddr: 0x81E0, symBinAddr: 0x100008750, symSize: 0x30 }
  - { offsetInCU: 0x18280, offset: 0x18280, size: 0x8, addend: 0x0, symName: __ZNKSt3__114__move_trivialclB7v160006IPP4CellS4_Li0EEENS_4pairIPT_PT0_EES7_S7_S9_, symObjAddr: 0x83A0, symBinAddr: 0x100008910, symSize: 0x40 }
  - { offsetInCU: 0x182ED, offset: 0x182ED, size: 0x8, addend: 0x0, symName: __ZNSt3__14pairIPPP4CellS4_EC1B7v160006IRS4_S4_LPv0EEEOT_OT0_, symObjAddr: 0x8540, symBinAddr: 0x100008AB0, symSize: 0x30 }
  - { offsetInCU: 0x1834B, offset: 0x1834B, size: 0x8, addend: 0x0, symName: __ZNSt3__14pairIPPP4CellS4_EC2B7v160006IRS4_S4_LPv0EEEOT_OT0_, symObjAddr: 0x8570, symBinAddr: 0x100008AE0, symSize: 0x30 }
  - { offsetInCU: 0x183A9, offset: 0x183A9, size: 0x8, addend: 0x0, symName: __ZNSt3__118__unwrap_iter_implIPPP4CellLb1EE8__unwrapB7v160006ES4_, symObjAddr: 0x85A0, symBinAddr: 0x100008B10, symSize: 0x20 }
  - { offsetInCU: 0x183CC, offset: 0x183CC, size: 0x8, addend: 0x0, symName: __ZNSt3__14pairIPPP4CellS4_EC1B7v160006IS4_S4_LPv0EEEOT_OT0_, symObjAddr: 0x85C0, symBinAddr: 0x100008B30, symSize: 0x30 }
  - { offsetInCU: 0x1842A, offset: 0x1842A, size: 0x8, addend: 0x0, symName: __ZNSt3__14pairIPPP4CellS4_EC2B7v160006IS4_S4_LPv0EEEOT_OT0_, symObjAddr: 0x85F0, symBinAddr: 0x100008B60, symSize: 0x30 }
  - { offsetInCU: 0x18488, offset: 0x18488, size: 0x8, addend: 0x0, symName: __ZNSt3__118__unwrap_iter_implIPPP4CellLb1EE8__rewrapB7v160006ES4_S4_, symObjAddr: 0x8620, symBinAddr: 0x100008B90, symSize: 0x50 }
  - { offsetInCU: 0x184C3, offset: 0x184C3, size: 0x8, addend: 0x0, symName: __ZNSt3__114__split_bufferIPP4CellRNS_9allocatorIS3_EEE21_ConstructTransactionC1B7v160006EPPS3_m, symObjAddr: 0x86B0, symBinAddr: 0x100008C20, symSize: 0x30 }
  - { offsetInCU: 0x18509, offset: 0x18509, size: 0x8, addend: 0x0, symName: __ZNSt3__116allocator_traitsINS_9allocatorIPP4CellEEE9constructB7v160006IS4_JS4_EvEEvRS5_PT_DpOT0_, symObjAddr: 0x86E0, symBinAddr: 0x100008C50, symSize: 0x30 }
  - { offsetInCU: 0x18560, offset: 0x18560, size: 0x8, addend: 0x0, symName: __ZNSt3__114__split_bufferIPP4CellRNS_9allocatorIS3_EEE7__allocB7v160006Ev, symObjAddr: 0x8710, symBinAddr: 0x100008C80, symSize: 0x20 }
  - { offsetInCU: 0x18586, offset: 0x18586, size: 0x8, addend: 0x0, symName: __ZNKSt3__113move_iteratorIPPP4CellEdeB7v160006Ev, symObjAddr: 0x8730, symBinAddr: 0x100008CA0, symSize: 0x20 }
  - { offsetInCU: 0x185AC, offset: 0x185AC, size: 0x8, addend: 0x0, symName: __ZNSt3__113move_iteratorIPPP4CellEppB7v160006Ev, symObjAddr: 0x8750, symBinAddr: 0x100008CC0, symSize: 0x20 }
  - { offsetInCU: 0x185D2, offset: 0x185D2, size: 0x8, addend: 0x0, symName: __ZNSt3__114__split_bufferIPP4CellRNS_9allocatorIS3_EEE21_ConstructTransactionD1B7v160006Ev, symObjAddr: 0x8770, symBinAddr: 0x100008CE0, symSize: 0x20 }
  - { offsetInCU: 0x185FC, offset: 0x185FC, size: 0x8, addend: 0x0, symName: __ZNKSt3__113move_iteratorIPPP4CellE4baseB7v160006Ev, symObjAddr: 0x8800, symBinAddr: 0x100008D70, symSize: 0x20 }
  - { offsetInCU: 0x18622, offset: 0x18622, size: 0x8, addend: 0x0, symName: __ZNSt3__114__split_bufferIPP4CellRNS_9allocatorIS3_EEE21_ConstructTransactionC2B7v160006EPPS3_m, symObjAddr: 0x8820, symBinAddr: 0x100008D90, symSize: 0x40 }
  - { offsetInCU: 0x18668, offset: 0x18668, size: 0x8, addend: 0x0, symName: __ZNSt3__19allocatorIPP4CellE9constructB7v160006IS3_JS3_EEEvPT_DpOT0_, symObjAddr: 0x8860, symBinAddr: 0x100008DD0, symSize: 0x20 }
  - { offsetInCU: 0x186BE, offset: 0x186BE, size: 0x8, addend: 0x0, symName: __ZNSt3__117__compressed_pairIPPP4CellRNS_9allocatorIS3_EEE6secondB7v160006Ev, symObjAddr: 0x8880, symBinAddr: 0x100008DF0, symSize: 0x20 }
  - { offsetInCU: 0x186E4, offset: 0x186E4, size: 0x8, addend: 0x0, symName: __ZNSt3__122__compressed_pair_elemIRNS_9allocatorIPP4CellEELi1ELb0EE5__getB7v160006Ev, symObjAddr: 0x88A0, symBinAddr: 0x100008E10, symSize: 0x20 }
  - { offsetInCU: 0x1870A, offset: 0x1870A, size: 0x8, addend: 0x0, symName: __ZNSt3__114__split_bufferIPP4CellRNS_9allocatorIS3_EEE21_ConstructTransactionD2B7v160006Ev, symObjAddr: 0x88C0, symBinAddr: 0x100008E30, symSize: 0x20 }
  - { offsetInCU: 0x18734, offset: 0x18734, size: 0x8, addend: 0x0, symName: __ZNSt3__113move_iteratorIPPP4CellEC2B7v160006ES4_, symObjAddr: 0x88E0, symBinAddr: 0x100008E50, symSize: 0x20 }
  - { offsetInCU: 0x1876C, offset: 0x1876C, size: 0x8, addend: 0x0, symName: __ZNSt3__19allocatorIPP4CellE9constructB7v160006IS3_JRKS3_EEEvPT_DpOT0_, symObjAddr: 0x8900, symBinAddr: 0x100008E70, symSize: 0x20 }
  - { offsetInCU: 0x187C2, offset: 0x187C2, size: 0x8, addend: 0x0, symName: __ZNKSt3__114__split_bufferIPP4CellNS_9allocatorIS3_EEE9__end_capB7v160006Ev, symObjAddr: 0x8920, symBinAddr: 0x100008E90, symSize: 0x20 }
  - { offsetInCU: 0x187E8, offset: 0x187E8, size: 0x8, addend: 0x0, symName: __ZNKSt3__117__compressed_pairIPPP4CellNS_9allocatorIS3_EEE5firstB7v160006Ev, symObjAddr: 0x8940, symBinAddr: 0x100008EB0, symSize: 0x20 }
  - { offsetInCU: 0x1880E, offset: 0x1880E, size: 0x8, addend: 0x0, symName: __ZNKSt3__122__compressed_pair_elemIPPP4CellLi0ELb0EE5__getB7v160006Ev, symObjAddr: 0x8960, symBinAddr: 0x100008ED0, symSize: 0x10 }
  - { offsetInCU: 0x18834, offset: 0x18834, size: 0x8, addend: 0x0, symName: __ZNSt3__19allocatorIP4CellE8allocateB7v160006Em, symObjAddr: 0x8970, symBinAddr: 0x100008EE0, symSize: 0x50 }
  - { offsetInCU: 0x18872, offset: 0x18872, size: 0x8, addend: 0x0, symName: __ZNSt3__116allocator_traitsINS_9allocatorIP4CellEEE8max_sizeB7v160006IS4_vEEmRKS4_, symObjAddr: 0x89C0, symBinAddr: 0x100008F30, symSize: 0x20 }
  - { offsetInCU: 0x188A0, offset: 0x188A0, size: 0x8, addend: 0x0, symName: __ZNKSt3__19allocatorIP4CellE8max_sizeB7v160006Ev, symObjAddr: 0x89E0, symBinAddr: 0x100008F50, symSize: 0x20 }
  - { offsetInCU: 0x188D0, offset: 0x188D0, size: 0x8, addend: 0x0, symName: __ZNKSt3__123__move_backward_trivialclB7v160006IPP4CellS4_Li0EEENS_4pairIPT_PT0_EES7_S7_S9_, symObjAddr: 0x8B70, symBinAddr: 0x1000090E0, symSize: 0x40 }
  - { offsetInCU: 0x18938, offset: 0x18938, size: 0x8, addend: 0x0, symName: __ZNSt3__14pairIPPP4CellS4_EC1B7v160006IRS4_S7_LPv0EEEOT_OT0_, symObjAddr: 0x8C60, symBinAddr: 0x1000091D0, symSize: 0x30 }
  - { offsetInCU: 0x18996, offset: 0x18996, size: 0x8, addend: 0x0, symName: __ZNSt3__14pairIPPP4CellS4_EC2B7v160006IRS4_S7_LPv0EEEOT_OT0_, symObjAddr: 0x8C90, symBinAddr: 0x100009200, symSize: 0x30 }
  - { offsetInCU: 0x189F4, offset: 0x189F4, size: 0x8, addend: 0x0, symName: __ZNSt3__117__compressed_pairIPPP4CellNS_9allocatorIS3_EEE6secondB7v160006Ev, symObjAddr: 0x8D10, symBinAddr: 0x100009280, symSize: 0x20 }
  - { offsetInCU: 0x18A1A, offset: 0x18A1A, size: 0x8, addend: 0x0, symName: __ZNSt3__122__compressed_pair_elemINS_9allocatorIPP4CellEELi1ELb1EE5__getB7v160006Ev, symObjAddr: 0x8D30, symBinAddr: 0x1000092A0, symSize: 0x10 }
  - { offsetInCU: 0x18A40, offset: 0x18A40, size: 0x8, addend: 0x0, symName: __ZNSt3__114__split_bufferIPP4CellRNS_9allocatorIS3_EEEC2EmmS6_, symObjAddr: 0x8D40, symBinAddr: 0x1000092B0, symSize: 0xD0 }
  - { offsetInCU: 0x18AB3, offset: 0x18AB3, size: 0x8, addend: 0x0, symName: __ZNSt3__117__compressed_pairIPPP4CellRNS_9allocatorIS3_EEEC1B7v160006IDnS7_EEOT_OT0_, symObjAddr: 0x8E10, symBinAddr: 0x100009380, symSize: 0x30 }
  - { offsetInCU: 0x18B0B, offset: 0x18B0B, size: 0x8, addend: 0x0, symName: __ZNSt3__117__compressed_pairIPPP4CellRNS_9allocatorIS3_EEEC2B7v160006IDnS7_EEOT_OT0_, symObjAddr: 0x8E80, symBinAddr: 0x1000093F0, symSize: 0x40 }
  - { offsetInCU: 0x18B63, offset: 0x18B63, size: 0x8, addend: 0x0, symName: __ZNSt3__122__compressed_pair_elemIRNS_9allocatorIPP4CellEELi1ELb0EEC2B7v160006IS6_vEEOT_, symObjAddr: 0x8EC0, symBinAddr: 0x100009430, symSize: 0x20 }
  - { offsetInCU: 0x18BA5, offset: 0x18BA5, size: 0x8, addend: 0x0, symName: __ZNSt3__19allocatorIPP4CellE8allocateB7v160006Em, symObjAddr: 0x8EE0, symBinAddr: 0x100009450, symSize: 0x50 }
  - { offsetInCU: 0x18BE3, offset: 0x18BE3, size: 0x8, addend: 0x0, symName: __ZNSt3__116allocator_traitsINS_9allocatorIPP4CellEEE8max_sizeB7v160006IS5_vEEmRKS5_, symObjAddr: 0x8F30, symBinAddr: 0x1000094A0, symSize: 0x20 }
  - { offsetInCU: 0x18C11, offset: 0x18C11, size: 0x8, addend: 0x0, symName: __ZNKSt3__19allocatorIPP4CellE8max_sizeB7v160006Ev, symObjAddr: 0x8F50, symBinAddr: 0x1000094C0, symSize: 0x20 }
  - { offsetInCU: 0x18C37, offset: 0x18C37, size: 0x8, addend: 0x0, symName: __ZNSt3__122__allocator_destructorINS_9allocatorIP4CellEEEC2B7v160006ERS4_m, symObjAddr: 0x8F70, symBinAddr: 0x1000094E0, symSize: 0x30 }
  - { offsetInCU: 0x18C7D, offset: 0x18C7D, size: 0x8, addend: 0x0, symName: __ZNSt3__110unique_ptrIPP4CellNS_22__allocator_destructorINS_9allocatorIS2_EEEEEC2B7v160006ILb1EvEES3_NS_16__dependent_typeINS_27__unique_ptr_deleter_sfinaeIS7_EEXT_EE20__good_rval_ref_typeE, symObjAddr: 0x8FA0, symBinAddr: 0x100009510, symSize: 0x40 }
  - { offsetInCU: 0x18CCE, offset: 0x18CCE, size: 0x8, addend: 0x0, symName: __ZNSt3__117__compressed_pairIPP4CellNS_22__allocator_destructorINS_9allocatorIS2_EEEEEC1B7v160006IRS3_S7_EEOT_OT0_, symObjAddr: 0x8FE0, symBinAddr: 0x100009550, symSize: 0x30 }
  - { offsetInCU: 0x18D26, offset: 0x18D26, size: 0x8, addend: 0x0, symName: __ZNSt3__117__compressed_pairIPP4CellNS_22__allocator_destructorINS_9allocatorIS2_EEEEEC2B7v160006IRS3_S7_EEOT_OT0_, symObjAddr: 0x9010, symBinAddr: 0x100009580, symSize: 0x40 }
  - { offsetInCU: 0x18D7E, offset: 0x18D7E, size: 0x8, addend: 0x0, symName: __ZNSt3__122__compressed_pair_elemIPP4CellLi0ELb0EEC2B7v160006IRS3_vEEOT_, symObjAddr: 0x9050, symBinAddr: 0x1000095C0, symSize: 0x20 }
  - { offsetInCU: 0x18DC0, offset: 0x18DC0, size: 0x8, addend: 0x0, symName: __ZNSt3__122__compressed_pair_elemINS_22__allocator_destructorINS_9allocatorIP4CellEEEELi1ELb0EEC2B7v160006IS6_vEEOT_, symObjAddr: 0x9070, symBinAddr: 0x1000095E0, symSize: 0x30 }
  - { offsetInCU: 0x18E02, offset: 0x18E02, size: 0x8, addend: 0x0, symName: __ZNKSt3__117__compressed_pairIPP4CellNS_22__allocator_destructorINS_9allocatorIS2_EEEEE5firstB7v160006Ev, symObjAddr: 0x90A0, symBinAddr: 0x100009610, symSize: 0x20 }
  - { offsetInCU: 0x18E28, offset: 0x18E28, size: 0x8, addend: 0x0, symName: __ZNKSt3__122__compressed_pair_elemIPP4CellLi0ELb0EE5__getB7v160006Ev, symObjAddr: 0x90C0, symBinAddr: 0x100009630, symSize: 0x10 }
  - { offsetInCU: 0x18E4E, offset: 0x18E4E, size: 0x8, addend: 0x0, symName: __ZNSt3__117__compressed_pairIPP4CellNS_22__allocator_destructorINS_9allocatorIS2_EEEEE5firstB7v160006Ev, symObjAddr: 0x90D0, symBinAddr: 0x100009640, symSize: 0x20 }
  - { offsetInCU: 0x18E74, offset: 0x18E74, size: 0x8, addend: 0x0, symName: __ZNSt3__122__compressed_pair_elemIPP4CellLi0ELb0EE5__getB7v160006Ev, symObjAddr: 0x90F0, symBinAddr: 0x100009660, symSize: 0x10 }
  - { offsetInCU: 0x18E9A, offset: 0x18E9A, size: 0x8, addend: 0x0, symName: __ZNSt3__117__compressed_pairIPPP4CellNS_9allocatorIS3_EEE5firstB7v160006Ev, symObjAddr: 0x9100, symBinAddr: 0x100009670, symSize: 0x20 }
  - { offsetInCU: 0x18EC0, offset: 0x18EC0, size: 0x8, addend: 0x0, symName: __ZNSt3__122__compressed_pair_elemIPPP4CellLi0ELb0EE5__getB7v160006Ev, symObjAddr: 0x9120, symBinAddr: 0x100009690, symSize: 0x10 }
  - { offsetInCU: 0x18EE6, offset: 0x18EE6, size: 0x8, addend: 0x0, symName: __ZNSt3__117__compressed_pairIPPP4CellRNS_9allocatorIS3_EEE5firstB7v160006Ev, symObjAddr: 0x9130, symBinAddr: 0x1000096A0, symSize: 0x20 }
  - { offsetInCU: 0x18F0C, offset: 0x18F0C, size: 0x8, addend: 0x0, symName: __ZNSt3__110unique_ptrIPP4CellNS_22__allocator_destructorINS_9allocatorIS2_EEEEED2B7v160006Ev, symObjAddr: 0x9150, symBinAddr: 0x1000096C0, symSize: 0x20 }
  - { offsetInCU: 0x18F36, offset: 0x18F36, size: 0x8, addend: 0x0, symName: __ZNSt3__110unique_ptrIPP4CellNS_22__allocator_destructorINS_9allocatorIS2_EEEEE5resetB7v160006ES3_, symObjAddr: 0x9170, symBinAddr: 0x1000096E0, symSize: 0x70 }
  - { offsetInCU: 0x18F7A, offset: 0x18F7A, size: 0x8, addend: 0x0, symName: __ZNSt3__117__compressed_pairIPP4CellNS_22__allocator_destructorINS_9allocatorIS2_EEEEE6secondB7v160006Ev, symObjAddr: 0x91E0, symBinAddr: 0x100009750, symSize: 0x20 }
  - { offsetInCU: 0x18FA0, offset: 0x18FA0, size: 0x8, addend: 0x0, symName: __ZNSt3__122__allocator_destructorINS_9allocatorIP4CellEEEclB7v160006EPS3_, symObjAddr: 0x9200, symBinAddr: 0x100009770, symSize: 0x30 }
  - { offsetInCU: 0x18FD4, offset: 0x18FD4, size: 0x8, addend: 0x0, symName: __ZNSt3__122__compressed_pair_elemINS_22__allocator_destructorINS_9allocatorIP4CellEEEELi1ELb0EE5__getB7v160006Ev, symObjAddr: 0x9230, symBinAddr: 0x1000097A0, symSize: 0x10 }
  - { offsetInCU: 0x18FFA, offset: 0x18FFA, size: 0x8, addend: 0x0, symName: __ZNSt3__116allocator_traitsINS_9allocatorIP4CellEEE10deallocateB7v160006ERS4_PS3_m, symObjAddr: 0x9240, symBinAddr: 0x1000097B0, symSize: 0x30 }
  - { offsetInCU: 0x1903C, offset: 0x1903C, size: 0x8, addend: 0x0, symName: __ZNSt3__19allocatorIP4CellE10deallocateB7v160006EPS2_m, symObjAddr: 0x9270, symBinAddr: 0x1000097E0, symSize: 0x40 }
  - { offsetInCU: 0x1907E, offset: 0x1907E, size: 0x8, addend: 0x0, symName: __ZNSt3__114__split_bufferIPP4CellRNS_9allocatorIS3_EEED2Ev, symObjAddr: 0x92B0, symBinAddr: 0x100009820, symSize: 0x70 }
  - { offsetInCU: 0x190AA, offset: 0x190AA, size: 0x8, addend: 0x0, symName: __ZNSt3__114__split_bufferIPP4CellRNS_9allocatorIS3_EEE5clearB7v160006Ev, symObjAddr: 0x9320, symBinAddr: 0x100009890, symSize: 0x20 }
  - { offsetInCU: 0x190D0, offset: 0x190D0, size: 0x8, addend: 0x0, symName: __ZNSt3__116allocator_traitsINS_9allocatorIPP4CellEEE10deallocateB7v160006ERS5_PS4_m, symObjAddr: 0x9340, symBinAddr: 0x1000098B0, symSize: 0x30 }
  - { offsetInCU: 0x19112, offset: 0x19112, size: 0x8, addend: 0x0, symName: __ZNKSt3__114__split_bufferIPP4CellRNS_9allocatorIS3_EEE8capacityB7v160006Ev, symObjAddr: 0x9370, symBinAddr: 0x1000098E0, symSize: 0x30 }
  - { offsetInCU: 0x19138, offset: 0x19138, size: 0x8, addend: 0x0, symName: __ZNSt3__114__split_bufferIPP4CellRNS_9allocatorIS3_EEE17__destruct_at_endB7v160006EPS3_, symObjAddr: 0x93A0, symBinAddr: 0x100009910, symSize: 0x30 }
  - { offsetInCU: 0x1916C, offset: 0x1916C, size: 0x8, addend: 0x0, symName: __ZNSt3__114__split_bufferIPP4CellRNS_9allocatorIS3_EEE17__destruct_at_endB7v160006EPS3_NS_17integral_constantIbLb0EEE, symObjAddr: 0x93D0, symBinAddr: 0x100009940, symSize: 0x80 }
  - { offsetInCU: 0x191AC, offset: 0x191AC, size: 0x8, addend: 0x0, symName: __ZNSt3__116allocator_traitsINS_9allocatorIPP4CellEEE7destroyB7v160006IS4_vEEvRS5_PT_, symObjAddr: 0x9450, symBinAddr: 0x1000099C0, symSize: 0x30 }
  - { offsetInCU: 0x191E9, offset: 0x191E9, size: 0x8, addend: 0x0, symName: __ZNSt3__19allocatorIPP4CellE7destroyB7v160006EPS3_, symObjAddr: 0x9480, symBinAddr: 0x1000099F0, symSize: 0x10 }
  - { offsetInCU: 0x1921D, offset: 0x1921D, size: 0x8, addend: 0x0, symName: __ZNSt3__19allocatorIPP4CellE10deallocateB7v160006EPS3_m, symObjAddr: 0x9490, symBinAddr: 0x100009A00, symSize: 0x40 }
  - { offsetInCU: 0x1925F, offset: 0x1925F, size: 0x8, addend: 0x0, symName: __ZNKSt3__114__split_bufferIPP4CellRNS_9allocatorIS3_EEE9__end_capB7v160006Ev, symObjAddr: 0x94D0, symBinAddr: 0x100009A40, symSize: 0x20 }
  - { offsetInCU: 0x19285, offset: 0x19285, size: 0x8, addend: 0x0, symName: __ZNKSt3__117__compressed_pairIPPP4CellRNS_9allocatorIS3_EEE5firstB7v160006Ev, symObjAddr: 0x94F0, symBinAddr: 0x100009A60, symSize: 0x20 }
  - { offsetInCU: 0x192AB, offset: 0x192AB, size: 0x8, addend: 0x0, symName: __ZNSt3__19allocatorIP4CellE9constructB7v160006IS2_JRKS2_EEEvPT_DpOT0_, symObjAddr: 0x9510, symBinAddr: 0x100009A80, symSize: 0x20 }
  - { offsetInCU: 0x19301, offset: 0x19301, size: 0x8, addend: 0x0, symName: __ZNKSt3__114__split_bufferIPP4CellNS_9allocatorIS3_EEE5emptyB7v160006Ev, symObjAddr: 0x9530, symBinAddr: 0x100009AA0, symSize: 0x20 }
  - { offsetInCU: 0x19327, offset: 0x19327, size: 0x8, addend: 0x0, symName: __ZNSt3__116__deque_iteratorIP4CellPS2_RS2_PS3_lLl512EEC1B7v160006ES5_S3_, symObjAddr: 0x9550, symBinAddr: 0x100009AC0, symSize: 0x30 }
  - { offsetInCU: 0x1936F, offset: 0x1936F, size: 0x8, addend: 0x0, symName: __ZNSt3__116__deque_iteratorIP4CellPS2_RS2_PS3_lLl512EEC2B7v160006ES5_S3_, symObjAddr: 0x9580, symBinAddr: 0x100009AF0, symSize: 0x30 }
  - { offsetInCU: 0x193B7, offset: 0x193B7, size: 0x8, addend: 0x0, symName: __ZNSt3__117__compressed_pairImNS_9allocatorIP4CellEEE5firstB7v160006Ev, symObjAddr: 0x95B0, symBinAddr: 0x100009B20, symSize: 0x20 }
  - { offsetInCU: 0x193DD, offset: 0x193DD, size: 0x8, addend: 0x0, symName: __ZNKSt3__15dequeIP4CellNS_9allocatorIS2_EEE5emptyB7v160006Ev, symObjAddr: 0x95D0, symBinAddr: 0x100009B40, symSize: 0x30 }
  - { offsetInCU: 0x19403, offset: 0x19403, size: 0x8, addend: 0x0, symName: __ZNKSt3__124uniform_int_distributionIiE10param_type1bEv, symObjAddr: 0x9750, symBinAddr: 0x100009CC0, symSize: 0x20 }
  - { offsetInCU: 0x19429, offset: 0x19429, size: 0x8, addend: 0x0, symName: __ZNKSt3__124uniform_int_distributionIiE10param_type1aEv, symObjAddr: 0x9770, symBinAddr: 0x100009CE0, symSize: 0x10 }
  - { offsetInCU: 0x1944F, offset: 0x1944F, size: 0x8, addend: 0x0, symName: __ZNSt3__125__independent_bits_engineINS_23mersenne_twister_engineIjLm32ELm624ELm397ELm31ELj2567483615ELm11ELj4294967295ELm7ELj2636928640ELm15ELj4022730752ELm18ELj1812433253EEEjEC1ERS2_m, symObjAddr: 0x9780, symBinAddr: 0x100009CF0, symSize: 0x30 }
  - { offsetInCU: 0x19496, offset: 0x19496, size: 0x8, addend: 0x0, symName: __ZNSt3__125__independent_bits_engineINS_23mersenne_twister_engineIjLm32ELm624ELm397ELm31ELj2567483615ELm11ELj4294967295ELm7ELj2636928640ELm15ELj4022730752ELm18ELj1812433253EEEjEclEv, symObjAddr: 0x97B0, symBinAddr: 0x100009D20, symSize: 0x20 }
  - { offsetInCU: 0x194BC, offset: 0x194BC, size: 0x8, addend: 0x0, symName: __ZNSt3__114numeric_limitsIjE3maxB7v160006Ev, symObjAddr: 0x9810, symBinAddr: 0x100009D80, symSize: 0x10 }
  - { offsetInCU: 0x194D0, offset: 0x194D0, size: 0x8, addend: 0x0, symName: __ZNSt3__125__independent_bits_engineINS_23mersenne_twister_engineIjLm32ELm624ELm397ELm31ELj2567483615ELm11ELj4294967295ELm7ELj2636928640ELm15ELj4022730752ELm18ELj1812433253EEEjEC2ERS2_m, symObjAddr: 0x9820, symBinAddr: 0x100009D90, symSize: 0x1D0 }
  - { offsetInCU: 0x19517, offset: 0x19517, size: 0x8, addend: 0x0, symName: __ZNSt3__125__independent_bits_engineINS_23mersenne_twister_engineIjLm32ELm624ELm397ELm31ELj2567483615ELm11ELj4294967295ELm7ELj2636928640ELm15ELj4022730752ELm18ELj1812433253EEEjE6__evalENS_17integral_constantIbLb0EEE, symObjAddr: 0x99F0, symBinAddr: 0x100009F60, symSize: 0x30 }
  - { offsetInCU: 0x19548, offset: 0x19548, size: 0x8, addend: 0x0, symName: __ZNSt3__123mersenne_twister_engineIjLm32ELm624ELm397ELm31ELj2567483615ELm11ELj4294967295ELm7ELj2636928640ELm15ELj4022730752ELm18ELj1812433253EEclEv, symObjAddr: 0x9A20, symBinAddr: 0x100009F90, symSize: 0x130 }
  - { offsetInCU: 0x195BB, offset: 0x195BB, size: 0x8, addend: 0x0, symName: __ZNSt3__123mersenne_twister_engineIjLm32ELm624ELm397ELm31ELj2567483615ELm11ELj4294967295ELm7ELj2636928640ELm15ELj4022730752ELm18ELj1812433253EE8__rshiftB7v160006ILm1EEENS_9enable_ifIXltT_L_ZNS1_3_DtEEEjE4typeEj, symObjAddr: 0x9B50, symBinAddr: 0x10000A0C0, symSize: 0x10 }
  - { offsetInCU: 0x195E8, offset: 0x195E8, size: 0x8, addend: 0x0, symName: __ZNSt3__123mersenne_twister_engineIjLm32ELm624ELm397ELm31ELj2567483615ELm11ELj4294967295ELm7ELj2636928640ELm15ELj4022730752ELm18ELj1812433253EE8__rshiftB7v160006ILm11EEENS_9enable_ifIXltT_L_ZNS1_3_DtEEEjE4typeEj, symObjAddr: 0x9B60, symBinAddr: 0x10000A0D0, symSize: 0x10 }
  - { offsetInCU: 0x19615, offset: 0x19615, size: 0x8, addend: 0x0, symName: __ZNSt3__123mersenne_twister_engineIjLm32ELm624ELm397ELm31ELj2567483615ELm11ELj4294967295ELm7ELj2636928640ELm15ELj4022730752ELm18ELj1812433253EE8__lshiftB7v160006ILm7EEENS_9enable_ifIXltT_Lm32EEjE4typeEj, symObjAddr: 0x9B70, symBinAddr: 0x10000A0E0, symSize: 0x20 }
  - { offsetInCU: 0x19642, offset: 0x19642, size: 0x8, addend: 0x0, symName: __ZNSt3__123mersenne_twister_engineIjLm32ELm624ELm397ELm31ELj2567483615ELm11ELj4294967295ELm7ELj2636928640ELm15ELj4022730752ELm18ELj1812433253EE8__lshiftB7v160006ILm15EEENS_9enable_ifIXltT_Lm32EEjE4typeEj, symObjAddr: 0x9B90, symBinAddr: 0x10000A100, symSize: 0x20 }
  - { offsetInCU: 0x1966F, offset: 0x1966F, size: 0x8, addend: 0x0, symName: __ZNSt3__123mersenne_twister_engineIjLm32ELm624ELm397ELm31ELj2567483615ELm11ELj4294967295ELm7ELj2636928640ELm15ELj4022730752ELm18ELj1812433253EE8__rshiftB7v160006ILm18EEENS_9enable_ifIXltT_L_ZNS1_3_DtEEEjE4typeEj, symObjAddr: 0x9BB0, symBinAddr: 0x10000A120, symSize: 0x10 }
  - { offsetInCU: 0x1969C, offset: 0x1969C, size: 0x8, addend: 0x0, symName: __ZNSt3__123__libcpp_numeric_limitsIjLb1EE3maxB7v160006Ev, symObjAddr: 0x9BE0, symBinAddr: 0x10000A150, symSize: 0x10 }
  - { offsetInCU: 0x196B0, offset: 0x196B0, size: 0x8, addend: 0x0, symName: __ZNSt3__15dequeIP4CellNS_9allocatorIS2_EEE4backEv, symObjAddr: 0x9BF0, symBinAddr: 0x10000A160, symSize: 0x60 }
  - { offsetInCU: 0x196E7, offset: 0x196E7, size: 0x8, addend: 0x0, symName: __ZNSt3__15dequeIP4CellNS_9allocatorIS2_EEE8pop_backEv, symObjAddr: 0x9C50, symBinAddr: 0x10000A1C0, symSize: 0xA0 }
  - { offsetInCU: 0x1972D, offset: 0x1972D, size: 0x8, addend: 0x0, symName: __ZNSt3__116allocator_traitsINS_9allocatorIP4CellEEE7destroyB7v160006IS3_vEEvRS4_PT_, symObjAddr: 0x9CF0, symBinAddr: 0x10000A260, symSize: 0x30 }
  - { offsetInCU: 0x1976A, offset: 0x1976A, size: 0x8, addend: 0x0, symName: __ZNSt3__15dequeIP4CellNS_9allocatorIS2_EEE25__maybe_remove_back_spareB7v160006Eb, symObjAddr: 0x9D30, symBinAddr: 0x10000A2A0, symSize: 0xA0 }
  - { offsetInCU: 0x1979F, offset: 0x1979F, size: 0x8, addend: 0x0, symName: __ZNSt3__19allocatorIP4CellE7destroyB7v160006EPS2_, symObjAddr: 0x9DD0, symBinAddr: 0x10000A340, symSize: 0x10 }
  - { offsetInCU: 0x197D3, offset: 0x197D3, size: 0x8, addend: 0x0, symName: __ZNKSt3__15dequeIP4CellNS_9allocatorIS2_EEE19__back_spare_blocksB7v160006Ev, symObjAddr: 0x9DE0, symBinAddr: 0x10000A350, symSize: 0x20 }
  - { offsetInCU: 0x197F9, offset: 0x197F9, size: 0x8, addend: 0x0, symName: __ZNSt3__114__split_bufferIPP4CellNS_9allocatorIS3_EEE4backB7v160006Ev, symObjAddr: 0x9E00, symBinAddr: 0x10000A370, symSize: 0x20 }
  - { offsetInCU: 0x1981F, offset: 0x1981F, size: 0x8, addend: 0x0, symName: __ZNSt3__114__split_bufferIPP4CellNS_9allocatorIS3_EEE8pop_backB7v160006Ev, symObjAddr: 0x9E20, symBinAddr: 0x10000A390, symSize: 0x30 }
  - { offsetInCU: 0x19845, offset: 0x19845, size: 0x8, addend: 0x0, symName: __ZNSt3__114__split_bufferIPP4CellNS_9allocatorIS3_EEE17__destruct_at_endB7v160006EPS3_, symObjAddr: 0x9E50, symBinAddr: 0x10000A3C0, symSize: 0x30 }
  - { offsetInCU: 0x19879, offset: 0x19879, size: 0x8, addend: 0x0, symName: __ZNSt3__114__split_bufferIPP4CellNS_9allocatorIS3_EEE17__destruct_at_endB7v160006EPS3_NS_17integral_constantIbLb0EEE, symObjAddr: 0x9E80, symBinAddr: 0x10000A3F0, symSize: 0x80 }
  - { offsetInCU: 0x198B9, offset: 0x198B9, size: 0x8, addend: 0x0, symName: __ZNSt3__15stackIP4CellNS_5dequeIS2_NS_9allocatorIS2_EEEEED2Ev, symObjAddr: 0x9F00, symBinAddr: 0x10000A470, symSize: 0x20 }
  - { offsetInCU: 0x198E5, offset: 0x198E5, size: 0x8, addend: 0x0, symName: __ZNSt3__15dequeIP4CellNS_9allocatorIS2_EEED1B7v160006Ev, symObjAddr: 0x9F20, symBinAddr: 0x10000A490, symSize: 0x20 }
  - { offsetInCU: 0x1990F, offset: 0x1990F, size: 0x8, addend: 0x0, symName: __ZNSt3__15dequeIP4CellNS_9allocatorIS2_EEED2B7v160006Ev, symObjAddr: 0x9F40, symBinAddr: 0x10000A4B0, symSize: 0x80 }
  - { offsetInCU: 0x19965, offset: 0x19965, size: 0x8, addend: 0x0, symName: __ZNSt3__15dequeIP4CellNS_9allocatorIS2_EEE5clearEv, symObjAddr: 0x9FC0, symBinAddr: 0x10000A530, symSize: 0x160 }
  - { offsetInCU: 0x199C0, offset: 0x199C0, size: 0x8, addend: 0x0, symName: __ZNSt3__114__split_bufferIPP4CellNS_9allocatorIS3_EEED1Ev, symObjAddr: 0xA120, symBinAddr: 0x10000A690, symSize: 0x20 }
  - { offsetInCU: 0x199EC, offset: 0x199EC, size: 0x8, addend: 0x0, symName: __ZNSt3__15dequeIP4CellNS_9allocatorIS2_EEE5beginB7v160006Ev, symObjAddr: 0xA140, symBinAddr: 0x10000A6B0, symSize: 0xA0 }
  - { offsetInCU: 0x19A21, offset: 0x19A21, size: 0x8, addend: 0x0, symName: __ZNSt3__116__deque_iteratorIP4CellPS2_RS2_PS3_lLl512EEppB7v160006Ev, symObjAddr: 0xA210, symBinAddr: 0x10000A780, symSize: 0x60 }
  - { offsetInCU: 0x19A47, offset: 0x19A47, size: 0x8, addend: 0x0, symName: __ZNSt3__114__split_bufferIPP4CellNS_9allocatorIS3_EEED2Ev, symObjAddr: 0xA2A0, symBinAddr: 0x10000A810, symSize: 0x60 }
  - { offsetInCU: 0x19A73, offset: 0x19A73, size: 0x8, addend: 0x0, symName: __ZNSt3__114__split_bufferIPP4CellNS_9allocatorIS3_EEE5clearB7v160006Ev, symObjAddr: 0xA300, symBinAddr: 0x10000A870, symSize: 0x20 }
  - { offsetInCU: 0x19A99, offset: 0x19A99, size: 0x8, addend: 0x0, symName: __ZNSt3__16vectorINS0_IbNS_9allocatorIbEEEENS1_IS3_EEEixB7v160006Em, symObjAddr: 0xA320, symBinAddr: 0x10000A890, symSize: 0x20 }
  - { offsetInCU: 0x19AD0, offset: 0x19AD0, size: 0x8, addend: 0x0, symName: __ZNSt3__16vectorIbNS_9allocatorIbEEEixB7v160006Em, symObjAddr: 0xA340, symBinAddr: 0x10000A8B0, symSize: 0x40 }
  - { offsetInCU: 0x19B05, offset: 0x19B05, size: 0x8, addend: 0x0, symName: __ZNSt3__115__bit_referenceINS_6vectorIbNS_9allocatorIbEEEELb1EEaSB7v160006Eb, symObjAddr: 0xA380, symBinAddr: 0x10000A8F0, symSize: 0x60 }
  - { offsetInCU: 0x19B39, offset: 0x19B39, size: 0x8, addend: 0x0, symName: __ZNSt3__16vectorIbNS_9allocatorIbEEE10__make_refB7v160006Em, symObjAddr: 0xA3E0, symBinAddr: 0x10000A950, symSize: 0x50 }
  - { offsetInCU: 0x19B6E, offset: 0x19B6E, size: 0x8, addend: 0x0, symName: __ZNSt3__115__bit_referenceINS_6vectorIbNS_9allocatorIbEEEELb1EEC1B7v160006EPmm, symObjAddr: 0xA430, symBinAddr: 0x10000A9A0, symSize: 0x30 }
  - { offsetInCU: 0x19BB4, offset: 0x19BB4, size: 0x8, addend: 0x0, symName: __ZNSt3__115__bit_referenceINS_6vectorIbNS_9allocatorIbEEEELb1EEC2B7v160006EPmm, symObjAddr: 0xA460, symBinAddr: 0x10000A9D0, symSize: 0x30 }
  - { offsetInCU: 0x19BFA, offset: 0x19BFA, size: 0x8, addend: 0x0, symName: __ZNKSt3__115__bit_referenceINS_6vectorIbNS_9allocatorIbEEEELb1EEcvbB7v160006Ev, symObjAddr: 0xA490, symBinAddr: 0x10000AA00, symSize: 0x30 }
  - { offsetInCU: 0x19C20, offset: 0x19C20, size: 0x8, addend: 0x0, symName: __ZN4MazeD2Ev, symObjAddr: 0xA4C0, symBinAddr: 0x10000AA30, symSize: 0x30 }
  - { offsetInCU: 0x19C4C, offset: 0x19C4C, size: 0x8, addend: 0x0, symName: __ZNSt3__112basic_stringIcNS_11char_traitsIcEENS_9allocatorIcEEEC2B7v160006IDnEEPKc, symObjAddr: 0xA4F0, symBinAddr: 0x10000AA60, symSize: 0x60 }
  - { offsetInCU: 0x19C8A, offset: 0x19C8A, size: 0x8, addend: 0x0, symName: __ZNSt3__117__compressed_pairINS_12basic_stringIcNS_11char_traitsIcEENS_9allocatorIcEEE5__repES5_EC1B7v160006INS_18__default_init_tagESA_EEOT_OT0_, symObjAddr: 0xA550, symBinAddr: 0x10000AAC0, symSize: 0x30 }
  - { offsetInCU: 0x19CE2, offset: 0x19CE2, size: 0x8, addend: 0x0, symName: __ZNSt3__111char_traitsIcE6lengthEPKc, symObjAddr: 0xA580, symBinAddr: 0x10000AAF0, symSize: 0x30 }
  - { offsetInCU: 0x19D05, offset: 0x19D05, size: 0x8, addend: 0x0, symName: __ZNSt3__117__compressed_pairINS_12basic_stringIcNS_11char_traitsIcEENS_9allocatorIcEEE5__repES5_EC2B7v160006INS_18__default_init_tagESA_EEOT_OT0_, symObjAddr: 0xA5C0, symBinAddr: 0x10000AB30, symSize: 0x30 }
  - { offsetInCU: 0x19D5D, offset: 0x19D5D, size: 0x8, addend: 0x0, symName: __ZNSt3__122__compressed_pair_elemINS_12basic_stringIcNS_11char_traitsIcEENS_9allocatorIcEEE5__repELi0ELb0EEC2B7v160006ENS_18__default_init_tagE, symObjAddr: 0xA5F0, symBinAddr: 0x10000AB60, symSize: 0x10 }
  - { offsetInCU: 0x19D91, offset: 0x19D91, size: 0x8, addend: 0x0, symName: __ZNSt3__122__compressed_pair_elemINS_9allocatorIcEELi1ELb1EEC2B7v160006ENS_18__default_init_tagE, symObjAddr: 0xA600, symBinAddr: 0x10000AB70, symSize: 0x20 }
  - { offsetInCU: 0x19DC5, offset: 0x19DC5, size: 0x8, addend: 0x0, symName: __ZNSt3__19allocatorIcEC2B7v160006Ev, symObjAddr: 0xA620, symBinAddr: 0x10000AB90, symSize: 0x20 }
  - { offsetInCU: 0x19DEF, offset: 0x19DEF, size: 0x8, addend: 0x0, symName: __ZNSt3__116__non_trivial_ifILb1ENS_9allocatorIcEEEC2B7v160006Ev, symObjAddr: 0xA640, symBinAddr: 0x10000ABB0, symSize: 0x10 }
  - { offsetInCU: 0x19E37, offset: 0x19E37, size: 0x8, addend: 0x0, symName: __ZNKSt3__113basic_ostreamIcNS_11char_traitsIcEEE6sentrycvbB7v160006Ev, symObjAddr: 0xA860, symBinAddr: 0x10000ADD0, symSize: 0x20 }
  - { offsetInCU: 0x19E5D, offset: 0x19E5D, size: 0x8, addend: 0x0, symName: __ZNSt3__119ostreambuf_iteratorIcNS_11char_traitsIcEEEC1B7v160006ERNS_13basic_ostreamIcS2_EE, symObjAddr: 0xAAA0, symBinAddr: 0x10000B010, symSize: 0x30 }
  - { offsetInCU: 0x19E95, offset: 0x19E95, size: 0x8, addend: 0x0, symName: __ZNKSt3__18ios_base5flagsB7v160006Ev, symObjAddr: 0xAAD0, symBinAddr: 0x10000B040, symSize: 0x20 }
  - { offsetInCU: 0x19EBD, offset: 0x19EBD, size: 0x8, addend: 0x0, symName: __ZNKSt3__19basic_iosIcNS_11char_traitsIcEEE4fillB7v160006Ev, symObjAddr: 0xAAF0, symBinAddr: 0x10000B060, symSize: 0x70 }
  - { offsetInCU: 0x19EE5, offset: 0x19EE5, size: 0x8, addend: 0x0, symName: __ZNKSt3__119ostreambuf_iteratorIcNS_11char_traitsIcEEE6failedB7v160006Ev, symObjAddr: 0xAB60, symBinAddr: 0x10000B0D0, symSize: 0x20 }
  - { offsetInCU: 0x19F0B, offset: 0x19F0B, size: 0x8, addend: 0x0, symName: __ZNSt3__19basic_iosIcNS_11char_traitsIcEEE8setstateB7v160006Ej, symObjAddr: 0xAB80, symBinAddr: 0x10000B0F0, symSize: 0x30 }
  - { offsetInCU: 0x19F40, offset: 0x19F40, size: 0x8, addend: 0x0, symName: __ZNKSt3__18ios_base5widthB7v160006Ev, symObjAddr: 0xABB0, symBinAddr: 0x10000B120, symSize: 0x20 }
  - { offsetInCU: 0x19F68, offset: 0x19F68, size: 0x8, addend: 0x0, symName: __ZNSt3__115basic_streambufIcNS_11char_traitsIcEEE5sputnB7v160006EPKcl, symObjAddr: 0xABD0, symBinAddr: 0x10000B140, symSize: 0x30 }
  - { offsetInCU: 0x19FAA, offset: 0x19FAA, size: 0x8, addend: 0x0, symName: __ZNSt3__112basic_stringIcNS_11char_traitsIcEENS_9allocatorIcEEEC1B7v160006Emc, symObjAddr: 0xAC00, symBinAddr: 0x10000B170, symSize: 0x30 }
  - { offsetInCU: 0x19FF2, offset: 0x19FF2, size: 0x8, addend: 0x0, symName: __ZNSt3__112basic_stringIcNS_11char_traitsIcEENS_9allocatorIcEEE4dataB7v160006Ev, symObjAddr: 0xAC30, symBinAddr: 0x10000B1A0, symSize: 0x30 }
  - { offsetInCU: 0x1A018, offset: 0x1A018, size: 0x8, addend: 0x0, symName: __ZNSt3__18ios_base5widthB7v160006El, symObjAddr: 0xAC60, symBinAddr: 0x10000B1D0, symSize: 0x30 }
  - { offsetInCU: 0x1A05E, offset: 0x1A05E, size: 0x8, addend: 0x0, symName: __ZNSt3__112basic_stringIcNS_11char_traitsIcEENS_9allocatorIcEEEC2B7v160006Emc, symObjAddr: 0xAC90, symBinAddr: 0x10000B200, symSize: 0x50 }
  - { offsetInCU: 0x1A0A6, offset: 0x1A0A6, size: 0x8, addend: 0x0, symName: __ZNSt3__112basic_stringIcNS_11char_traitsIcEENS_9allocatorIcEEE13__get_pointerB7v160006Ev, symObjAddr: 0xACF0, symBinAddr: 0x10000B260, symSize: 0x50 }
  - { offsetInCU: 0x1A0CC, offset: 0x1A0CC, size: 0x8, addend: 0x0, symName: __ZNKSt3__112basic_stringIcNS_11char_traitsIcEENS_9allocatorIcEEE9__is_longB7v160006Ev, symObjAddr: 0xAD40, symBinAddr: 0x10000B2B0, symSize: 0x30 }
  - { offsetInCU: 0x1A0F2, offset: 0x1A0F2, size: 0x8, addend: 0x0, symName: __ZNSt3__112basic_stringIcNS_11char_traitsIcEENS_9allocatorIcEEE18__get_long_pointerB7v160006Ev, symObjAddr: 0xAD70, symBinAddr: 0x10000B2E0, symSize: 0x20 }
  - { offsetInCU: 0x1A118, offset: 0x1A118, size: 0x8, addend: 0x0, symName: __ZNSt3__112basic_stringIcNS_11char_traitsIcEENS_9allocatorIcEEE19__get_short_pointerB7v160006Ev, symObjAddr: 0xAD90, symBinAddr: 0x10000B300, symSize: 0x30 }
  - { offsetInCU: 0x1A13E, offset: 0x1A13E, size: 0x8, addend: 0x0, symName: __ZNKSt3__117__compressed_pairINS_12basic_stringIcNS_11char_traitsIcEENS_9allocatorIcEEE5__repES5_E5firstB7v160006Ev, symObjAddr: 0xADC0, symBinAddr: 0x10000B330, symSize: 0x20 }
  - { offsetInCU: 0x1A164, offset: 0x1A164, size: 0x8, addend: 0x0, symName: __ZNKSt3__122__compressed_pair_elemINS_12basic_stringIcNS_11char_traitsIcEENS_9allocatorIcEEE5__repELi0ELb0EE5__getB7v160006Ev, symObjAddr: 0xADE0, symBinAddr: 0x10000B350, symSize: 0x10 }
  - { offsetInCU: 0x1A18A, offset: 0x1A18A, size: 0x8, addend: 0x0, symName: __ZNSt3__117__compressed_pairINS_12basic_stringIcNS_11char_traitsIcEENS_9allocatorIcEEE5__repES5_E5firstB7v160006Ev, symObjAddr: 0xADF0, symBinAddr: 0x10000B360, symSize: 0x20 }
  - { offsetInCU: 0x1A1B0, offset: 0x1A1B0, size: 0x8, addend: 0x0, symName: __ZNSt3__122__compressed_pair_elemINS_12basic_stringIcNS_11char_traitsIcEENS_9allocatorIcEEE5__repELi0ELb0EE5__getB7v160006Ev, symObjAddr: 0xAE10, symBinAddr: 0x10000B380, symSize: 0x10 }
  - { offsetInCU: 0x1A1D6, offset: 0x1A1D6, size: 0x8, addend: 0x0, symName: __ZNSt3__114pointer_traitsIPcE10pointer_toB7v160006ERc, symObjAddr: 0xAE20, symBinAddr: 0x10000B390, symSize: 0x10 }
  - { offsetInCU: 0x1A1F9, offset: 0x1A1F9, size: 0x8, addend: 0x0, symName: __ZNSt3__119ostreambuf_iteratorIcNS_11char_traitsIcEEEC2B7v160006ERNS_13basic_ostreamIcS2_EE, symObjAddr: 0xAE30, symBinAddr: 0x10000B3A0, symSize: 0x50 }
  - { offsetInCU: 0x1A231, offset: 0x1A231, size: 0x8, addend: 0x0, symName: __ZNKSt3__19basic_iosIcNS_11char_traitsIcEEE5rdbufB7v160006Ev, symObjAddr: 0xAE80, symBinAddr: 0x10000B3F0, symSize: 0x20 }
  - { offsetInCU: 0x1A259, offset: 0x1A259, size: 0x8, addend: 0x0, symName: __ZNKSt3__18ios_base5rdbufB7v160006Ev, symObjAddr: 0xAEA0, symBinAddr: 0x10000B410, symSize: 0x20 }
  - { offsetInCU: 0x1A27F, offset: 0x1A27F, size: 0x8, addend: 0x0, symName: __ZNSt3__111char_traitsIcE11eq_int_typeEii, symObjAddr: 0xAEC0, symBinAddr: 0x10000B430, symSize: 0x20 }
  - { offsetInCU: 0x1A2B0, offset: 0x1A2B0, size: 0x8, addend: 0x0, symName: __ZNSt3__111char_traitsIcE3eofEv, symObjAddr: 0xAEE0, symBinAddr: 0x10000B450, symSize: 0x10 }
  - { offsetInCU: 0x1A2C4, offset: 0x1A2C4, size: 0x8, addend: 0x0, symName: __ZNKSt3__19basic_iosIcNS_11char_traitsIcEEE5widenB7v160006Ec, symObjAddr: 0xAEF0, symBinAddr: 0x10000B460, symSize: 0x80 }
  - { offsetInCU: 0x1A32D, offset: 0x1A32D, size: 0x8, addend: 0x0, symName: __ZNKSt3__15ctypeIcE5widenB7v160006Ec, symObjAddr: 0xAFA0, symBinAddr: 0x10000B510, symSize: 0x30 }
  - { offsetInCU: 0x1A362, offset: 0x1A362, size: 0x8, addend: 0x0, symName: __ZNSt3__18ios_base8setstateB7v160006Ej, symObjAddr: 0xAFD0, symBinAddr: 0x10000B540, symSize: 0x24 }
...
